(dp1
S'../models/700112_1_300_1_1_0_15_1e-05_10_5_MULTI.doc2vec'
p2
(lp3
S'SENT_http://www.sports-reference.com/cbb/players/dave-lamore-1/gamelog/2013/-0'
p4
aS'SENT_http://somerset.lib.nj.us/new/locationlist.html-1'
p5
aS'SENT_http://www.baseballprospectus.com/prospect_tracker/results.php?org=col&rankYear=2012&bsort=RANK&bsortDir=DESC&psort=RANK&psortDir=ASC-1'
p6
aS'SENT_http://www.google.com/patents/US6467976?dq=7222078-5'
p7
aS'SENT_http://www.ewtn.com/library/CHISTORY/NMBRGROW.HTM-2'
p8
aS'SENT_http://maps.met.police.uk/access.php?area=E01002864&sort=area&order=a-3'
p9
aS'SENT_http://maps.met.police.uk/access.php?area=E01004711&sort=area&order=a-3'
p10
aS'SENT_http://maps.met.police.uk/access.php?area=E01002897&sort=rate&order=a-3'
p11
aS'SENT_http://maps.met.police.uk/access.php?area=E01002876&sort=rate&order=a-3'
p12
aS'SENT_http://maps.met.police.uk/access.php?area=E01000871&sort=rate-3'
p13
aS'SENT_http://www.fao.org/docrep/006/Y4751E/y4751e08.htm-0'
p14
aS'SENT_http://www.doe.virginia.gov/news/news_releases/2011/jan25.shtml-1'
p15
aS'SENT_http://www.cga.ct.gov/2009/rpt/2009-R-0383.htm-4'
p16
aS'SENT_http://www.cga.ct.gov/2009/rpt/2009-R-0383.htm-9'
p17
aS'SENT_http://www.top-law-schools.com/wiki/Duke_Law_School-0'
p18
asS'../models/700112_1_300_1_0_10_15_1e-05_10_5_SINGLE.doc2vec'
p19
(lp20
S'SENT_http://www.imf.org/external/pubs/ft/pam/pam48/pam4805.htm-3'
p21
aS'SENT_http://scholar.lib.vt.edu/ejournals/JTE/v21n2/obrien.html-1'
p22
aS'SENT_http://www.ihigh.com/eihss/article_202990.html-3'
p23
aS'SENT_http://www.digplanet.com/wiki/Tamil_Jain-6'
p24
aS'SENT_http://www.baseball-reference.com/boxes/ANA/ANA200510150.shtml-7'
p25
aS'SENT_http://en.wikipedia.org/wiki/John_Merrick_(golfer)-5'
p26
aS'SENT_http://www.currency-converter.org.uk/currency-rates/convert/AUD-HUF-rate.html-0'
p27
aS'SENT_http://tools.wmflabs.org/quentinv57-tools/tools/sulinfo.php?username=Paaln-0'
p28
aS'SENT_http://www.fao.org/docrep/meeting/009/j5800F/J5800f04.htm-8'
p29
aS'SENT_http://tools.wmflabs.org/quentinv57-tools/tools/sulinfo.php?username=Flowerpotman-0'
p30
aS'SENT_https://tools.wmflabs.org/quentinv57-tools/tools/sulinfo.php?username=Sawol-0'
p31
ag27
aS'SENT_http://www.amoeba.com/the-nature-of-sap-portastatic/albums/2150807/-0'
p32
aS'SENT_http://www.cabelas.com/catalog/includes/variants_popup.jsp?productId=1208044&categoryIds=104797980%7C104747580%7C104826780%7C104841180%7C&mainWindow=mainWindow1394206773486&WTz_l=-0'
p33
aS'SENT_http://balldurham.com/2013/07/24/breaking-the-curse/-2'
p34
asS'../models/700112_1_300_0_1_10_15_1e-05_10_5_MULTI.doc2vec'
p35
(lp36
S'SENT_http://onlinelibrary.wiley.com/doi/10.1111/j.1525-1497.2005.40247.x/full-1'
p37
aS'SENT_http://www.mass.gov/bb/h1/fy12h1/prnt_12/exec_12/pbudbrief1.htm-0'
p38
aS'SENT_http://www.1000genomes.org/about-1'
p39
aS'SENT_http://archive.ahrq.gov/qual/nhdr04/fullreport/Data_Tables/DD_91a.htm-2'
p40
aS'SENT_http://meps.ahrq.gov/mepsweb/data_files/publications/rf19/rf19.shtml-23'
p41
aS'SENT_http://www.mdpi.com/2072-4292/5/11/5725/xml-3'
p42
aS'SENT_http://www.cricketarchive.com/Archive/Scorecards/349/349060.html-2'
p43
aS'SENT_http://www.sports-reference.com/cbb/players/ty-walker-1.html-3'
p44
aS'SENT_http://www.cfbstats.com/2012/leader/821/team/defense/split01/category29/sort05.html-0'
p45
aS'SENT_http://www.fao.org/docrep/009/t0737e/T0737E06.htm-5'
p46
aS'SENT_http://www.arrl.org/results-database?event_id=22228&ofst=2225&ofst=2200-0'
p47
aS'SENT_http://www.ewtn.com/library/CHRIST/Z97STATS.HTM-6'
p48
aS'SENT_http://www.arrl.org/results-database?event_id=22228&ofst=975&ofst=900-0'
p49
aS'SENT_http://www.fao.org/docrep/003/w9634e/W9634e03.htm-0'
p50
aS'SENT_http://www.twstats.co.uk/uk4/index.php?page=player&mode=villages&id=41108-3'
p51
asS'../models/700112_1_300_0_1_10_15_0_10_20_SINGLE.doc2vec'
p52
(lp53
S'SENT_http://www.historyplace.com/worldwar2/holocaust/h-statistics.htm-1'
p54
aS'SENT_http://statisticbrain.com/holocaust-statistics/-2'
p55
aS'SENT_http://banglacricket.com/html/features/article.php?item=411-5'
p56
aS'SENT_http://schools-wikipedia.org/wp/e/English_language.htm-2'
p57
aS'SENT_http://www.digplanet.com/wiki/English-speaking_world-4'
p58
ag56
aS'SENT_http://www.fool.com/investing/general/2013/01/14/who-gains-from-lng-exportation.aspx-0'
p59
aS'SENT_http://www.bu.edu/isso/about/statistics/student/2011/country.html-7'
p60
aS'SENT_http://urlm.co.uk/www.totallywicked-eliquid.co.uk-3'
p61
aS'SENT_http://www.angelfire.com/ak/EgyptianSports/AfricanCup78.html-2'
p62
aS'SENT_http://www.twstats.com/en26/index.php?page=rankings&mode=villages-1'
p63
aS'SENT_http://www.arrl.org/results-database?event_id=45021&ofst=1725&ofst=2725-0'
p64
aS'SENT_http://webindetail.com/ws/ppshk.com-0'
p65
aS'SENT_http://www.sec.gov/Archives/edgar/data/1310313/000118811212000048/t72288_10ka.htm-12'
p66
aS'SENT_http://www.pro-football-reference.com/coaches/LineSc0.htm-3'
p67
asS'../models/700112_1_300_0_0_0_15_1e-05_10_5_MULTI.doc2vec'
p68
(lp69
S'SENT_http://www.pdga.com/player/33281/stats/2010-1'
p70
aS'SENT_http://canadiens.nhl.com/club/player.htm?id=8471424-3'
p71
aS'SENT_http://collegehockeyinc.com/stats/players14.php?osum11-5'
p72
aS'SENT_http://www.sports-reference.com/olympics/athletes/bu/krzysztof-bujar-1.html-1'
p73
aS'SENT_http://www.goalnepal.com/tournament_details.php?tid=80-41'
p74
aS'SENT_http://www.baseballprospectus.com/prospect_tracker/results.php?org=sea&rankYear=2012&bsort=AB&bsortDir=DESC&psort=RANK&psortDir=ASC-1'
p75
aS'SENT_http://www.childinfo.org/mics/mics3/archives/uzbekistan/survey0/dataSet/dataDictionary/varGroup5/varGroup0.html-0'
p76
aS'SENT_http://www.radioreference.com/apps/db/?fccCallsign=WNWQ404-6'
p77
aS'SENT_http://www.thebaseballcube.com/players/profile.asp?P=Wes-Helms&Page=GameLogs&Y=1998-5'
p78
aS'SENT_http://stats.espnscrum.com/scrum/rugby/records/player/most_tries_match_position.html?id=189;opposition=1;type=decade-17'
p79
aS'SENT_http://www.wunderground.com/cgi-bin/findweather/getForecast?query=zmw:33401.1.99999&hourly=1&yday=100&weekday=Thursday-3'
p80
aS'SENT_http://www.stevegtennis.com/head-to-head/women/Jill_Craybas/Vera_Dushevina/-3'
p81
aS'SENT_http://www.itsalloverfatman.com/broncos/entry/you-got-served-all-tebow-all-the-time-1'
p82
aS'SENT_http://www.thestreet.com/quote/SOFO/details/income-statement.html-1'
p83
aS'SENT_http://www.zoopla.co.uk/property/white-cottage/hopton-bank/hopton-wafers/kidderminster/dy14-0qf/7601810-0'
p84
asS'../models/700112_1_300_0_0_0_15_1e-05_10_20_SINGLE.doc2vec'
p85
(lp86
S'SENT_http://www.pdga.com/player/33281/stats/2010-1'
p87
aS'SENT_http://canadiens.nhl.com/club/player.htm?id=8471424-3'
p88
aS'SENT_http://collegehockeyinc.com/stats/players14.php?osum11-5'
p89
aS'SENT_http://www.sports-reference.com/olympics/athletes/bu/krzysztof-bujar-1.html-1'
p90
aS'SENT_http://www.goalnepal.com/tournament_details.php?tid=80-41'
p91
aS'SENT_http://www.baseballprospectus.com/prospect_tracker/results.php?org=sea&rankYear=2012&bsort=AB&bsortDir=DESC&psort=RANK&psortDir=ASC-1'
p92
aS'SENT_http://www.childinfo.org/mics/mics3/archives/uzbekistan/survey0/dataSet/dataDictionary/varGroup5/varGroup0.html-0'
p93
aS'SENT_http://www.radioreference.com/apps/db/?fccCallsign=WNWQ404-6'
p94
aS'SENT_http://www.thebaseballcube.com/players/profile.asp?P=Wes-Helms&Page=GameLogs&Y=1998-5'
p95
aS'SENT_http://stats.espnscrum.com/scrum/rugby/records/player/most_tries_match_position.html?id=189;opposition=1;type=decade-17'
p96
aS'SENT_http://www.wunderground.com/cgi-bin/findweather/getForecast?query=zmw:33401.1.99999&hourly=1&yday=100&weekday=Thursday-3'
p97
aS'SENT_http://www.stevegtennis.com/head-to-head/women/Jill_Craybas/Vera_Dushevina/-3'
p98
aS'SENT_http://www.itsalloverfatman.com/broncos/entry/you-got-served-all-tebow-all-the-time-1'
p99
aS'SENT_http://www.thestreet.com/quote/SOFO/details/income-statement.html-1'
p100
aS'SENT_http://www.zoopla.co.uk/property/white-cottage/hopton-bank/hopton-wafers/kidderminster/dy14-0qf/7601810-0'
p101
asS'../models/700112_2_100_0_1_0_15_1e-05_10_20_SINGLE.doc2vec'
p102
(lp103
S'SENT_http://en.wikipedia.org/wiki/UN_General_Assembly_Resolution_181-2'
p104
aS"SENT_http://fr.wikipedia.org/wiki/Municipalit%C3%A9s_sp%C3%A9cialis%C3%A9es_d'Alberta-0"
p105
aS'SENT_http://dailymed.nlm.nih.gov/dailymed/archives/fdaDrugInfo.cfm?archiveid=50210-1'
p106
aS'SENT_http://archive.ahrq.gov/qual/nhdr04/fullreport/Data_Tables/DD_91a.htm-2'
p107
aS'SENT_http://simple.wikipedia.org/wiki/List_of_countries_by_GDP_(PPP)-2'
p108
aS'SENT_http://www.fda.gov/Drugs/DevelopmentApprovalProcess/DevelopmentResources/Over-the-CounterOTCDrugs/ucm088727.htm-1'
p109
aS'SENT_http://microlinsexcel.blogspot.com/2012/04/multiplicar-e-somar-excel.html-2'
p110
aS'SENT_http://www.clinicaltrials.gov/ct2/show/results/NCT00643201-10'
p111
aS'SENT_http://www.clinicaltrials.gov/ct2/show/results/NCT00087490-7'
p112
aS'SENT_http://www.soccerway.com/matches/2012/06/02/netherlands/play-offs-45/sdv-barneveld/voetbal-vereniging-ons-genoegen/1285118/head2head/-7'
p113
aS'SENT_http://www.arrl.org/results-database?event_id=22228&ofst=1550-0'
p114
aS'SENT_http://www.arrl.org/results-database?event_id=45020&ofst=1225&ofst=2975-0'
p115
aS'SENT_http://www.arrl.org/results-database?event_id=22228&ofst=1225&ofst=2475-0'
p116
aS'SENT_http://www.arrl.org/results-database?event_id=13633&ofst=1525-0'
p117
aS'SENT_http://www.arrl.org/results-database?event_id=13653&ofst=2225&ofst=2300-0'
p118
asS'../models/700112_1_300_0_0_0_15_1e-05_20_20_SINGLE.doc2vec'
p119
(lp120
S'SENT_http://www.pdga.com/player/33281/stats/2010-1'
p121
aS'SENT_http://canadiens.nhl.com/club/player.htm?id=8471424-3'
p122
aS'SENT_http://collegehockeyinc.com/stats/players14.php?osum11-5'
p123
aS'SENT_http://www.sports-reference.com/olympics/athletes/bu/krzysztof-bujar-1.html-1'
p124
aS'SENT_http://www.goalnepal.com/tournament_details.php?tid=80-41'
p125
aS'SENT_http://www.baseballprospectus.com/prospect_tracker/results.php?org=sea&rankYear=2012&bsort=AB&bsortDir=DESC&psort=RANK&psortDir=ASC-1'
p126
aS'SENT_http://www.childinfo.org/mics/mics3/archives/uzbekistan/survey0/dataSet/dataDictionary/varGroup5/varGroup0.html-0'
p127
aS'SENT_http://www.radioreference.com/apps/db/?fccCallsign=WNWQ404-6'
p128
aS'SENT_http://www.thebaseballcube.com/players/profile.asp?P=Wes-Helms&Page=GameLogs&Y=1998-5'
p129
aS'SENT_http://stats.espnscrum.com/scrum/rugby/records/player/most_tries_match_position.html?id=189;opposition=1;type=decade-17'
p130
aS'SENT_http://www.wunderground.com/cgi-bin/findweather/getForecast?query=zmw:33401.1.99999&hourly=1&yday=100&weekday=Thursday-3'
p131
aS'SENT_http://www.stevegtennis.com/head-to-head/women/Jill_Craybas/Vera_Dushevina/-3'
p132
aS'SENT_http://www.itsalloverfatman.com/broncos/entry/you-got-served-all-tebow-all-the-time-1'
p133
aS'SENT_http://www.thestreet.com/quote/SOFO/details/income-statement.html-1'
p134
aS'SENT_http://www.zoopla.co.uk/property/white-cottage/hopton-bank/hopton-wafers/kidderminster/dy14-0qf/7601810-0'
p135
asS'../models/700112_1_300_0_0_10_15_1e-05_10_20_MULTI.doc2vec'
p136
(lp137
S'SENT_http://www.ihigh.com/eihss/article_202990.html-3'
p138
aS'SENT_http://en.wikipedia.org/wiki/Hotel_chains-0'
p139
aS'SENT_http://www.wikinvest.com/stock/K-Fed_Bancorp_(KFED)/News/1996331/K-Fed_Bancorp_Announces_Increase_in_1st_Quarter_Earnings-18'
p140
aS'SENT_http://www.chiefmarketer.com/promotional-marketing/100-promo-01062007-1'
p141
aS'SENT_http://www.federalreserve.gov/pubs/ifdp/2008/923/ifdp923.htm-1'
p142
aS'SENT_http://www.londonstockexchange.com/exchange/prices-and-markets/stocks/summary/company-summary.html?fourWayKey=LU0292101796LUGBXETFS-4'
p143
aS'SENT_http://www.cfbstats.com/2012/leader/823/team/offense/split17/category29/sort01.html-0'
p144
aS'SENT_http://www.cpa.state.tx.us/taxinfo/proptax/pvs11f/1231239051L.html-0'
p145
aS'SENT_http://www.mnhockeyhub.com/game/show/5414626-6'
p146
aS'SENT_http://www.sportsbookreview.com/forum/players-talk/1659870-ncaa-brackets-contest-air-tight-race-all-comes-down-tonight.html?slf=33-1'
p147
aS'SENT_http://www.jobs-salary.com/marshfield-clinic-rheumatologist-salary.htm-2'
p148
aS'SENT_http://www.iaaf.org/results/iaaf-world-challenge-meetings/2011/29th-meeting-de-atletismo-madrid-2011-4716/men/100-metres/semi-final/summary-0'
p149
aS'SENT_http://www.ontariohockeyleague.com/schedule/show/game/67137-8'
p150
aS'SENT_http://livestats.willamette.edu/teams/track_and_field/2013/20130302%20-%20Willamette%20Opener.html-14'
p151
aS'SENT_http://www.jobs-salary.com/department-of-veterans-affairs-medical-center-physician-salary.htm-2'
p152
asS'../models/700112_1_300_1_0_10_15_1e-05_20_5_MULTI.doc2vec'
p153
(lp154
S'SENT_http://baseballanalysts.com/archives/designated_hitter/index.php-84'
p155
aS'SENT_http://unstats.un.org/unsd/methods/icp/gdp/gdp02_htm.htm-7'
p156
aS'SENT_http://www.icis.com/Articles/2012/10/12/9603651/us-august-lldpe-exports-rise-by-15-year-on-year.html-0'
p157
aS'SENT_http://it.wikipedia.org/wiki/Albirex_Niigata-5'
p158
aS'SENT_http://www.federalreserve.gov/pubs/ifdp/2009/976/ifdp976.htm-37'
p159
aS'SENT_http://achahockey.org/player_profile.php?player_id=949442&schedule_id=179466&team_id=12977&expand=12977-179466-5'
p160
aS"SENT_http://ca.wikipedia.org/wiki/Jocs_Ol%C3%ADmpics_d'estiu_de_1992-1"
p161
aS'SENT_http://www.timeanddate.com/weather/usa/loma-linda/historic?hd=20130116-0'
p162
aS'SENT_http://www.londonstockexchange.com/exchange/prices-and-markets/stocks/summary/company-summary.html?fourWayKey=CY0000100319GBGBXAIM-4'
p163
aS'SENT_http://caps.fool.com/Ticker/KLAC/Scorecard.aspx?source=itxwebtxt0000016-0'
p164
aS'SENT_http://brownbears.com/sports/w-soccer/2012-13/boxscores/20120906_23ak.xml?tmpl=soxml-monospace-template-4'
p165
aS'SENT_http://caps.fool.com/Ticker/STB/Scorecard.aspx?source=itxwebtxt0000016-0'
p166
aS'SENT_http://www.radioreference.com/apps/db/?fccCallsign=KNHG453-6'
p167
aS'SENT_http://www.mass.gov/bb/gaa/fy2013/app_13/dpt_13/hosdm.htm-0'
p168
aS'SENT_http://flyers.nhl.com/club/player.htm?id=8452492&view=stats-3'
p169
asS'../models/700112_1_300_0_0_10_15_0_20_20_SINGLE.doc2vec'
p170
(lp171
S'SENT_http://rs6.loc.gov/frd/cs/peru/pe_appen.html-14'
p172
aS'SENT_http://websiterecord.com/dm/webgoles.com-17'
p173
aS'SENT_http://en.wikipedia.org/wiki/Records_and_statistics_of_the_Rugby_World_Cup-0'
p174
aS'SENT_http://www.cato.org/blog/tags/minors-0'
p175
aS'SENT_http://websiterecord.com/dm/podsnack.com-26'
p176
aS'SENT_http://websiterecord.com/dm/jetetroll.com-28'
p177
aS'SENT_http://www.businessmonitor.com/news-and-views/asia-2'
p178
aS'SENT_http://www.state.gov/e/eb/rls/othr/ics/2011/157348.htm-1'
p179
aS'SENT_http://www.websiterecord.com/dm/wapdesi.in-20'
p180
ag176
aS'SENT_http://www.sports-reference.com/cbb/players/wayne-runnels-1.html-3'
p181
aS'SENT_http://www.sports-reference.com/cbb/players/jordan-lee-1.html-3'
p182
aS'SENT_http://flightaware.com/live/flight/DAL268/history/20130924/1815Z/KSFO/KJFK/times-2'
p183
aS'SENT_http://www.runnersworld.com/race/1944904/hearts-for-honduras-run-10'
p184
aS'SENT_http://www.holidaylettings.co.uk/rentals/rates/103088-0'
p185
asS'../models/700112_2_300_0_0_0_15_1e-05_10_5_SINGLE.doc2vec'
p186
(lp187
S'SENT_http://www.pdga.com/player/33281/stats/2010-1'
p188
aS'SENT_http://canadiens.nhl.com/club/player.htm?id=8471424-3'
p189
aS'SENT_http://collegehockeyinc.com/stats/players14.php?osum11-5'
p190
aS'SENT_http://www.sports-reference.com/olympics/athletes/bu/krzysztof-bujar-1.html-1'
p191
aS'SENT_http://www.goalnepal.com/tournament_details.php?tid=80-41'
p192
aS'SENT_http://www.baseballprospectus.com/prospect_tracker/results.php?org=sea&rankYear=2012&bsort=AB&bsortDir=DESC&psort=RANK&psortDir=ASC-1'
p193
aS'SENT_http://www.childinfo.org/mics/mics3/archives/uzbekistan/survey0/dataSet/dataDictionary/varGroup5/varGroup0.html-0'
p194
aS'SENT_http://www.radioreference.com/apps/db/?fccCallsign=WNWQ404-6'
p195
aS'SENT_http://www.thebaseballcube.com/players/profile.asp?P=Wes-Helms&Page=GameLogs&Y=1998-5'
p196
aS'SENT_http://stats.espnscrum.com/scrum/rugby/records/player/most_tries_match_position.html?id=189;opposition=1;type=decade-17'
p197
aS'SENT_http://www.wunderground.com/cgi-bin/findweather/getForecast?query=zmw:33401.1.99999&hourly=1&yday=100&weekday=Thursday-3'
p198
aS'SENT_http://www.stevegtennis.com/head-to-head/women/Jill_Craybas/Vera_Dushevina/-3'
p199
aS'SENT_http://www.itsalloverfatman.com/broncos/entry/you-got-served-all-tebow-all-the-time-1'
p200
aS'SENT_http://www.thestreet.com/quote/SOFO/details/income-statement.html-1'
p201
aS'SENT_http://www.zoopla.co.uk/property/white-cottage/hopton-bank/hopton-wafers/kidderminster/dy14-0qf/7601810-0'
p202
asS'../models/700112_1_300_0_1_10_15_1e-05_20_5_MULTI.doc2vec'
p203
(lp204
S'SENT_http://www.imf.org/external/pubs/ft/pam/pam48/pam4805.htm-3'
p205
aS'SENT_http://www.co.lassen.ca.us/govt/dept/planning_building/planning_division/census_demographics.asp-12'
p206
aS'SENT_http://www.fda.gov/BiologicsBloodVaccines/Vaccines/ApprovedProducts/ucm238244.htm-41'
p207
aS'SENT_http://foodsecurityatlas.org/afg/country/provincial-Profile/Kunduz-3'
p208
aS'SENT_http://onlinelibrary.wiley.com/doi/10.1111/j.1525-1497.2005.40247.x/full-1'
p209
aS'SENT_http://www.mdpi.com/2072-4292/5/11/5725/xml-3'
p210
aS'SENT_http://www.greatschools.org/virginia/forest/-7'
p211
aS'SENT_http://www.greatschools.org/ohio/forest/-5'
p212
aS'SENT_http://docs.codehaus.org/exportword?pageId=227051145-0'
p213
aS'SENT_http://www.currency-converter.org.uk/currency-rates/convert/ZAR-HKD-rate.html-0'
p214
aS'SENT_http://www.twstats.co.uk/uk4/index.php?page=player&mode=villages&id=41108-3'
p215
aS'SENT_http://www.fao.org/docrep/003/w9634e/W9634e03.htm-0'
p216
aS'SENT_http://www.fao.org/docrep/006/Y4751E/y4751e08.htm-0'
p217
aS'SENT_http://www.fao.org/docrep/009/a0699e/A0699E05.htm-5'
p218
aS'SENT_http://www.ewtn.com/library/CHRIST/Z97STATS.HTM-6'
p219
asS'../models/700112_1_300_1_1_10_15_1e-05_20_20_MULTI.doc2vec'
p220
(lp221
S'SENT_http://www.fao.org/docrep/006/Y4751E/y4751e08.htm-0'
p222
aS'SENT_http://www.twstats.co.uk/uk4/index.php?page=player&mode=villages&id=41108-3'
p223
aS'SENT_http://www.twstats.com/en26/index.php?page=rankings&mode=villages-1'
p224
aS'SENT_http://www.internetworldstats.com/af/ci.htm-2'
p225
aS'SENT_http://www.rita.dot.gov/bts/sites/rita.dot.gov.bts/files/publications/the_changing_face_of_transportation/html/table_01_01.html-0'
p226
aS'SENT_http://uselectionatlas.org/RESULTS/party.php?year=1993&type=national&no=2&f=0&off=5&elect=0-1'
p227
aS'SENT_http://www.clinicaltrials.gov/ct2/show/results/NCT00284180-7'
p228
aS'SENT_http://www.greatschools.org/ohio/forest/-5'
p229
aS'SENT_http://www.txpoliticalalmanac.com/index.php?title=SD14-0'
p230
aS'SENT_http://www.soccerway.com/matches/2012/11/24/jordan/league/al-yarmouk/ramtha-sc/1331518/head2head/-7'
p231
aS'SENT_http://www.usgovernmentrevenue.com/downchart_gr.php?year=2000_2008&view=1&expand&units=b&fy=fy11&chart=F0-fed&bar=0&stack=1&size=m&title&state=US&color=c&local=s-6'
p232
aS'SENT_http://www.underdogseattle.com/league/2220/-1'
p233
aS'SENT_http://www.amoeba.com/the-tenants-the-tenants/albums/3096787/-0'
p234
aS'SENT_http://www.dallaschess.com/wbca.html-22'
p235
aS'SENT_http://ottoneu.fangraphs.com/1/playercard?id=1249-14'
p236
asS'../models/700112_1_300_1_0_0_15_0_20_20_MULTI.doc2vec'
p237
(lp238
S'SENT_http://www.pdga.com/player/33281/stats/2010-1'
p239
aS'SENT_http://canadiens.nhl.com/club/player.htm?id=8471424-3'
p240
aS'SENT_http://collegehockeyinc.com/stats/players14.php?osum11-5'
p241
aS'SENT_http://www.sports-reference.com/olympics/athletes/bu/krzysztof-bujar-1.html-1'
p242
aS'SENT_http://www.goalnepal.com/tournament_details.php?tid=80-41'
p243
aS'SENT_http://www.baseballprospectus.com/prospect_tracker/results.php?org=sea&rankYear=2012&bsort=AB&bsortDir=DESC&psort=RANK&psortDir=ASC-1'
p244
aS'SENT_http://www.childinfo.org/mics/mics3/archives/uzbekistan/survey0/dataSet/dataDictionary/varGroup5/varGroup0.html-0'
p245
aS'SENT_http://www.radioreference.com/apps/db/?fccCallsign=WNWQ404-6'
p246
aS'SENT_http://www.thebaseballcube.com/players/profile.asp?P=Wes-Helms&Page=GameLogs&Y=1998-5'
p247
aS'SENT_http://stats.espnscrum.com/scrum/rugby/records/player/most_tries_match_position.html?id=189;opposition=1;type=decade-17'
p248
aS'SENT_http://www.wunderground.com/cgi-bin/findweather/getForecast?query=zmw:33401.1.99999&hourly=1&yday=100&weekday=Thursday-3'
p249
aS'SENT_http://www.stevegtennis.com/head-to-head/women/Jill_Craybas/Vera_Dushevina/-3'
p250
aS'SENT_http://www.itsalloverfatman.com/broncos/entry/you-got-served-all-tebow-all-the-time-1'
p251
aS'SENT_http://www.thestreet.com/quote/SOFO/details/income-statement.html-1'
p252
aS'SENT_http://www.zoopla.co.uk/property/white-cottage/hopton-bank/hopton-wafers/kidderminster/dy14-0qf/7601810-0'
p253
asS'../models/700112_1_300_0_1_0_15_1e-05_10_5_SINGLE.doc2vec'
p254
(lp255
S'SENT_http://www.rita.dot.gov/bts/sites/rita.dot.gov.bts/files/publications/the_changing_face_of_transportation/html/table_01_01.html-0'
p256
aS'SENT_http://local.moving.com/auto-transport/texas/mcallen.asp-1'
p257
aS'SENT_http://www.ewtn.com/library/CHISTORY/NMBRGROW.HTM-2'
p258
aS'SENT_http://simple.wikipedia.org/wiki/List_of_countries_by_GDP_(PPP)-2'
p259
aS'SENT_http://www.sports-reference.com/olympics/athletes/ba/kamaluddin-badi-1.html-1'
p260
aS'SENT_http://www.clemsontigers.com/ViewArticle.dbml?SPID=103711&DB_OEM_ID=28500&ATCLID=208811461-9'
p261
aS'SENT_http://www.ukathletics.com/sports/w-soccer/stats/2010-2011/plyr_22.html-2'
p262
aS'SENT_http://www.financial-gauges.com/2011/01/pg-income-statement-analysis-for.html-0'
p263
aS'SENT_http://www.realtor.com/local/River-Forest_IL/home-prices-2'
p264
aS'SENT_http://www.appliancesconnection.com/traditional-vanity-tops-b1641-0-0-83,4849.html-25'
p265
ag260
ag258
aS'SENT_http://www.fao.org/docrep/006/Y4751E/y4751e08.htm-0'
p266
aS'SENT_http://en.wikipedia.org/wiki/Gymnastics_at_the_Summer_Olympics-8'
p267
aS'SENT_http://www.fao.org/docrep/009/a0699e/A0699E05.htm-5'
p268
asS'../models/700112_1_300_0_1_0_15_1e-05_20_20_MULTI.doc2vec'
p269
(lp270
S'SENT_http://www.twstats.co.uk/uk4/index.php?page=player&mode=villages&id=41108-3'
p271
aS'SENT_http://en.wikipedia.org/wiki/Balanced_budget_amendment-2'
p272
aS'SENT_http://www.usgovernmentspending.com/spending_chart_1820_2017USp_12s0li011mcn_H0f_US_National_Debt_As_Percent_Of_GDP-6'
p273
aS'SENT_http://www.carlson.com/news-and-media/news-releases.do?article=6589698-8'
p274
aS'SENT_http://en.rsf.org/press-freedom-round-up-2008-30-12-2008,29797-0'
p275
aS'SENT_http://www.greatschools.org/virginia/forest/-7'
p276
aS'SENT_http://www.cricketarchive.com/Archive/Scorecards/349/349060.html-2'
p277
aS'SENT_http://www.fao.org/docrep/006/ad672e/ad672e01.htm-1'
p278
aS'SENT_http://www.greatschools.org/louisiana/forest/-6'
p279
aS'SENT_http://www.elsanglin.com/the_burning_crusade.html-3'
p280
ag271
aS'SENT_http://www.ewtn.com/library/CHRIST/Z97STATS.HTM-6'
p281
aS'SENT_http://www.arrl.org/results-database?event_id=13652&ofst=800-0'
p282
aS'SENT_http://www.fao.org/docrep/003/w9634e/W9634e03.htm-0'
p283
aS'SENT_http://www.arrl.org/results-database?event_id=22228&ofst=975&ofst=900-0'
p284
asS'../models/700112_1_300_1_0_0_15_1e-05_10_20_MULTI.doc2vec'
p285
(lp286
S'SENT_http://www.pdga.com/player/33281/stats/2010-1'
p287
aS'SENT_http://canadiens.nhl.com/club/player.htm?id=8471424-3'
p288
aS'SENT_http://collegehockeyinc.com/stats/players14.php?osum11-5'
p289
aS'SENT_http://www.sports-reference.com/olympics/athletes/bu/krzysztof-bujar-1.html-1'
p290
aS'SENT_http://www.goalnepal.com/tournament_details.php?tid=80-41'
p291
aS'SENT_http://www.baseballprospectus.com/prospect_tracker/results.php?org=sea&rankYear=2012&bsort=AB&bsortDir=DESC&psort=RANK&psortDir=ASC-1'
p292
aS'SENT_http://www.childinfo.org/mics/mics3/archives/uzbekistan/survey0/dataSet/dataDictionary/varGroup5/varGroup0.html-0'
p293
aS'SENT_http://www.radioreference.com/apps/db/?fccCallsign=WNWQ404-6'
p294
aS'SENT_http://www.thebaseballcube.com/players/profile.asp?P=Wes-Helms&Page=GameLogs&Y=1998-5'
p295
aS'SENT_http://stats.espnscrum.com/scrum/rugby/records/player/most_tries_match_position.html?id=189;opposition=1;type=decade-17'
p296
aS'SENT_http://www.wunderground.com/cgi-bin/findweather/getForecast?query=zmw:33401.1.99999&hourly=1&yday=100&weekday=Thursday-3'
p297
aS'SENT_http://www.stevegtennis.com/head-to-head/women/Jill_Craybas/Vera_Dushevina/-3'
p298
aS'SENT_http://www.itsalloverfatman.com/broncos/entry/you-got-served-all-tebow-all-the-time-1'
p299
aS'SENT_http://www.thestreet.com/quote/SOFO/details/income-statement.html-1'
p300
aS'SENT_http://www.zoopla.co.uk/property/white-cottage/hopton-bank/hopton-wafers/kidderminster/dy14-0qf/7601810-0'
p301
asS'../models/700112_2_300_0_1_0_15_0_10_5_SINGLE.doc2vec'
p302
(lp303
S'SENT_http://de.wikipedia.org/wiki/KZ_Mittelbau-Dora-0'
p304
aS'SENT_http://www.cdc.gov/mmwr/preview/mmwrhtml/mm5816a2.htm?s_cid=mm5816a2_e-8'
p305
aS'SENT_http://www.iaaf.org/results/youth-olympic-games/2010/1st-youth-olympic-games-athletics-4685/women/medley-relay/final/startlist-0'
p306
aS'SENT_http://www.iaaf.org/results/youth-olympic-games/2010/1st-youth-olympic-games-athletics-4685/men/medley-relay/final/startlist-0'
p307
aS'SENT_http://websiterecord.com/dm/flirtbuddies.com-17'
p308
aS'SENT_http://www.infoplease.com/ipa/A0908708.html-1'
p309
aS'SENT_http://rs6.loc.gov/frd/cs/brazil/br_appen.html-22'
p310
aS'SENT_http://lj.libraryjournal.com/2014/07/careers/more-data-lj-salary-survey-2014/-8'
p311
aS'SENT_http://en.wikipedia.org/wiki/Nam_Trung_B%e1%bb%99-0'
p312
aS'SENT_http://www.getfilings.com/sec-filings/100409/AMBAC-FINANCIAL-GROUP-INC_10-K/-112'
p313
aS'SENT_http://www.jobs-salary.com/drugstore-salary.htm-2'
p314
aS'SENT_http://www.jobs-salary.com/massachusetts-principal-salary.htm-2'
p315
aS'SENT_http://www.fao.org/docrep/006/Y4751E/y4751e08.htm-0'
p316
aS'SENT_http://www.jobs-salary.com/qualcomm-salary.htm-2'
p317
aS'SENT_http://www.jobs-salary.com/billerica-software-development-engineer-salary-ma.htm-2'
p318
asS'../models/700112_2_300_0_1_0_15_1e-05_10_20_SINGLE.doc2vec'
p319
(lp320
S'SENT_http://www.clinicaltrials.gov/ct2/show/results/NCT01189227?term=nsabp+AND+nci+AND+c-11&rank=1-7'
p321
aS'SENT_http://en.wikipedia.org/wiki/UN_General_Assembly_Resolution_181-2'
p322
aS'SENT_http://www.twstats.com/en26/index.php?page=rankings&mode=villages-1'
p323
aS'SENT_http://www.ci.redding.ca.us/demographics.html-9'
p324
aS'SENT_http://www.ewtn.com/library/CHRIST/Z97STATS.HTM-6'
p325
aS'SENT_http://clinicaltrials.gov/ct2/show/results/NCT00768430-8'
p326
aS'SENT_http://www.fao.org/docrep/008/j6038e/J6038E-05.htm-3'
p327
aS'SENT_http://www.clinicaltrials.gov/ct2/show/results/NCT00488319-7'
p328
aS'SENT_http://www.thearda.com/Archive/Files/Analysis/NPMLRPM/NPMLRPM_Var33_1.asp-7'
p329
aS'SENT_http://www.cayugacounty.us/Portals/0/election/Election%20results/results.html-72'
p330
ag323
aS'SENT_http://www.stat-togo.org/index.php?option=com_content&view=category&layout=blog&id=43&Itemid=96-3'
p331
aS'SENT_http://www.pro-football-reference.com/coaches/BateJi0.htm-3'
p332
aS'SENT_http://www.pro-football-reference.com/coaches/TomsJi0.htm-3'
p333
aS'SENT_http://www.pro-football-reference.com/coaches/StudEr0.htm-3'
p334
asS'../models/700112_1_300_0_1_10_15_0_20_5_SINGLE.doc2vec'
p335
(lp336
S'SENT_http://www.usgovernmentdebt.us/spending_chart_1920_1930USp_13s1li011mcn_H0f-6'
p337
aS'SENT_http://wiki.galbijim.com/Dongducheon-1'
p338
aS'SENT_http://www.socialsecurityextension.org/gimi/gess/ShowTheme.do?tid=1608-0'
p339
aS'SENT_http://www.usgovernmentspending.com/downchart_gs.php?year=1793_2010&view=1&expand=&units=p&fy=fy11&chart=H0-fed&bar=0&stack=1&size=m&title=US%20Federal%20Debt%20As%20Percent%20Of%20GDP&state=US&color=c&local=s-6'
p340
aS'SENT_http://www.rita.dot.gov/bts/sites/rita.dot.gov.bts/files/publications/the_changing_face_of_transportation/html/table_01_01.html-0'
p341
aS'SENT_http://www.mongabay.com/deforestation_rate_tables.htm-18'
p342
aS'SENT_http://www.fao.org/docrep/007/ae219e/ae219e00.htm-30'
p343
aS'SENT_http://www.fao.org/docrep/007/v8330e/V8330E09.htm-6'
p344
aS'SENT_http://www.boston.com/news/special/politics/2012/general/mass-state-senate-2nd-essex-election-results-2012.html-0'
p345
aS'SENT_http://uphillhouse.com/2013/07/05/second-quarter-2013-performance/-0'
p346
aS'SENT_http://www.fao.org/docrep/006/Y4751E/y4751e08.htm-0'
p347
aS'SENT_http://www.guidetoonlineschools.com/degrees-0'
p348
aS'SENT_http://www.ewtn.com/library/CHISTORY/NMBRGROW.HTM-2'
p349
aS'SENT_http://cwpzoo.com/support-your-zoo/careers/-0'
p350
aS'SENT_http://www.baseball-reference.com/players/h/hudsoor01.shtml?sr-8'
p351
asS'../models/700112_1_300_1_0_10_15_1e-05_10_20_MULTI.doc2vec'
p352
(lp353
S'SENT_http://www.ihigh.com/eihss/article_202990.html-3'
p354
aS'SENT_http://baseballanalysts.com/archives/designated_hitter/index.php-84'
p355
aS'SENT_http://www.mdpi.com/1422-0067/13/9/11455/xml-0'
p356
aS'SENT_http://unstats.un.org/unsd/methods/icp/gdp/gdp02_htm.htm-7'
p357
aS'SENT_http://online.barrons.com/mdc/public/page/2_3021-loseamex-loser.html-1'
p358
aS'SENT_http://www.currency-converter.org.uk/currency-rates/convert/AUD-KRW-rate.html-0'
p359
aS'SENT_http://www.mass.gov/bb/gaa/fy2013/prnt_13/app_13/sect_13/po800.htm-0'
p360
aS'SENT_http://www.gurufocus.com/financials/SWGAY&affid=45223-2'
p361
aS'SENT_http://www.eliteprospects.com/team.php?team=1031&year0=2005-19'
p362
aS'SENT_http://friendsofbjp.org/content/inclusive-growth-impossible-without-manufacturing-7'
p363
aS'SENT_http://www.jobs-salary.com/infor-global-solutions-senior-technical-consultant-salary.htm-2'
p364
aS'SENT_http://www.jobs-salary.com/department-of-veterans-affairs-medical-center-staff-physician-salary.htm-2'
p365
aS'SENT_http://www.jobs-salary.com/michigan-design-engineer-mechanical-salary.htm-2'
p366
aS'SENT_http://www.jobs-salary.com/virginia-computer-system-administrator-salary.htm-2'
p367
aS'SENT_http://www.jobs-salary.com/department-of-veterans-affairs-medical-center-physician-salary.htm-2'
p368
asS'../models/700112_1_300_1_1_0_15_0_10_5_MULTI.doc2vec'
p369
(lp370
S'SENT_http://unstats.un.org/unsd/methods/icp/gdp/gdp02_htm.htm-7'
p371
aS'SENT_http://www.cricketarchive.com/Archive/Scorecards/128/128329.html-8'
p372
aS'SENT_http://cricketarchive.com/Archive/Scorecards/91/91766.html-8'
p373
aS'SENT_http://cricketarchive.com/Archive/Scorecards/89/89221.html-4'
p374
aS'SENT_http://www.archives.gov/about/plans-reports/performance-accountability/2001/index.html-10'
p375
aS'SENT_http://www.soccerway.com/matches/2013/03/24/spain/segunda-b/ud-salamanca/rayo-vallecano-madrid-ii/1335353/head2head/-2'
p376
aS'SENT_http://www.soccerway.com/matches/2013/01/27/andorra/1a-divisio/ce-principat/ue-engordany/1367704/head2head/-2'
p377
aS'SENT_http://en.wikipedia.org/wiki/Shane_Vereen-6'
p378
aS'SENT_http://www.soccerway.com/matches/2013/07/16/world/friendlies/malawi/angola/1526868/head2head/-2'
p379
aS'SENT_http://www.soccerway.com/matches/2013/06/29/world/club-friendlies/fc-nordsjalland/fc-vestsjalland/1500503/head2head/-2'
p380
aS'SENT_http://www.cga.ct.gov/2009/rpt/2009-R-0383.htm-12'
p381
aS'SENT_http://www.doe.virginia.gov/news/news_releases/2011/jan25.shtml-1'
p382
aS'SENT_http://www.bulkreefsupply.com/titanium-heating-system-with-jbj-true-temp-digital-controller-1.html-21'
p383
aS'SENT_http://nces.ed.gov/programs/coe/analysis/tables/2009-tab07.asp-0'
p384
aS'SENT_http://www.usprisonculture.com/blog/tag/expansion-of-prisons/-2'
p385
asS'../models/700112_1_300_0_0_10_15_0_10_20_SINGLE.doc2vec'
p386
(lp387
S'SENT_http://www.infoplease.com/world/statistics/economic-statistics-by-country-2010.html-1'
p388
aS'SENT_http://websiterecord.com/dm/videoculinary.ru-23'
p389
aS'SENT_http://www.swfinstitute.org/tag/macroeconomics/-0'
p390
aS'SENT_http://www.google.com/patents/US20110320385?ie=ISO-8859-1-10'
p391
aS'SENT_http://www.liveleak.com/view?i=8f6_1312409962-1'
p392
aS'SENT_http://www.econedlink.org/lessons/projector.php?lid=697&type=educator-0'
p393
aS'SENT_http://www.whichwaytopay.com/world-interest-rates.asp-3'
p394
aS'SENT_http://websiterecord.com/dm/luckyhack.com-24'
p395
aS'SENT_http://websiterecord.com/dm/whoreslag.com-21'
p396
aS'SENT_http://websiterecord.com/dm/desiunseen.com-13'
p397
aS'SENT_http://www.mass.gov/bb/gaa/fy2013/app_13/act_13/ha45131023.htm-2'
p398
aS'SENT_http://www.ws.edu/athletics/baseball/schedule/box/2014/Box%20Game%2060.html-1'
p399
aS'SENT_http://www.londonstockexchange.com/exchange/prices-and-markets/stocks/summary/company-summary.html?fourWayKey=IE00B3CNHG25ZZGBXETF2-4'
p400
aS'SENT_http://www.eia.gov/electricity/annual/html/epa_08_09_b.html-5'
p401
aS'SENT_http://www.eliteprospects.com/team.php?team=9824&metric=no-22'
p402
asS'../models/700112_1_300_0_0_10_15_1e-05_20_20_SINGLE.doc2vec'
p403
(lp404
S'SENT_http://www.fda.gov/ohrms/dockets/ac/03/briefing/3956B1_01_FDA-alfuzosin.htm-3'
p405
aS'SENT_http://www.umsl.edu/services/abroad/Academic%20Information/Majors/languages.html-7'
p406
aS'SENT_http://www.securityguide.com/crime-reports/long-beach-ca/-11'
p407
aS'SENT_http://simple.wikipedia.org/wiki/Almens-1'
p408
aS'SENT_http://www.mdpi.com/1660-4601/6/1/25/xml-1'
p409
aS'SENT_http://www.powersportstv.com/compare.php?make_cd=&item_cd=1&add=124830&models=124854-124786-5'
p410
aS'SENT_http://www.powersportstv.com/compare.php?make_cd=&item_cd=1&add=68359&models=68355-62700-5'
p411
aS'SENT_http://www.powersportstv.com/compare.php?make_cd=&item_cd=1&add=124674&models=127741-125984-5'
p412
aS'SENT_http://www.powersportstv.com/compare.php?make_cd=&item_cd=1&add=125288&models=128056-125287-5'
p413
aS'SENT_http://www.sports-reference.com/olympics/athletes/he/bernd-herzig-1.html-1'
p414
aS'SENT_http://oceancolor.gsfc.nasa.gov/REPROCESSING/R2009/validation/-1'
p415
aS'SENT_http://www.sports-reference.com/olympics/summer/1960/-2'
p416
aS'SENT_http://www.navypedia.org/ships/france/fr_ss_saphir.htm-0'
p417
aS"SENT_http://en.wikipedia.org/wiki/2006_FINA_Men's_Water_Polo_World_League-0"
p418
aS'SENT_http://www.ebay.co.uk/itm/Belstaff-Jacke-Jacket-Racing-Blouson-Grose-L-/110718779008?pt=DE_Herren_Jacken_M%C3%A4ntel&hash=item19c75a7e80-8'
p419
asS'../models/700112_1_300_0_0_0_15_1e-05_20_5_SINGLE.doc2vec'
p420
(lp421
S'SENT_http://www.pdga.com/player/33281/stats/2010-1'
p422
aS'SENT_http://canadiens.nhl.com/club/player.htm?id=8471424-3'
p423
aS'SENT_http://collegehockeyinc.com/stats/players14.php?osum11-5'
p424
aS'SENT_http://www.sports-reference.com/olympics/athletes/bu/krzysztof-bujar-1.html-1'
p425
aS'SENT_http://www.goalnepal.com/tournament_details.php?tid=80-41'
p426
aS'SENT_http://www.baseballprospectus.com/prospect_tracker/results.php?org=sea&rankYear=2012&bsort=AB&bsortDir=DESC&psort=RANK&psortDir=ASC-1'
p427
aS'SENT_http://www.childinfo.org/mics/mics3/archives/uzbekistan/survey0/dataSet/dataDictionary/varGroup5/varGroup0.html-0'
p428
aS'SENT_http://www.radioreference.com/apps/db/?fccCallsign=WNWQ404-6'
p429
aS'SENT_http://www.thebaseballcube.com/players/profile.asp?P=Wes-Helms&Page=GameLogs&Y=1998-5'
p430
aS'SENT_http://stats.espnscrum.com/scrum/rugby/records/player/most_tries_match_position.html?id=189;opposition=1;type=decade-17'
p431
aS'SENT_http://www.wunderground.com/cgi-bin/findweather/getForecast?query=zmw:33401.1.99999&hourly=1&yday=100&weekday=Thursday-3'
p432
aS'SENT_http://www.stevegtennis.com/head-to-head/women/Jill_Craybas/Vera_Dushevina/-3'
p433
aS'SENT_http://www.itsalloverfatman.com/broncos/entry/you-got-served-all-tebow-all-the-time-1'
p434
aS'SENT_http://www.thestreet.com/quote/SOFO/details/income-statement.html-1'
p435
aS'SENT_http://www.zoopla.co.uk/property/white-cottage/hopton-bank/hopton-wafers/kidderminster/dy14-0qf/7601810-0'
p436
asS'../models/700112_1_300_1_0_10_15_1e-05_10_20_SINGLE.doc2vec'
p437
(lp438
S'SENT_http://www.ihigh.com/eihss/article_202990.html-3'
p439
aS'SENT_http://www.mdpi.com/2223-7747/2/2/203/xml-2'
p440
aS'SENT_http://scholar.lib.vt.edu/ejournals/JTE/v21n2/obrien.html-1'
p441
aS'SENT_http://www.mdpi.com/1422-0067/13/9/11455/xml-0'
p442
aS'SENT_http://www.mdpi.com/2072-6643/6/1/342/xml-0'
p443
aS'SENT_http://www.iwsf.com/wrl_1010/showskierscores.php?last=SAUVAT&first=Theodore&list=May07-0'
p444
aS'SENT_http://www.amoeba.com/catching-up-to-the-future-fonda/albums/985713/-0'
p445
aS'SENT_http://www.worlddancesport.org/Event/Competition/Open-Lviv-18726/Youth-Latin-43184/Ranking-3'
p446
aS'SENT_http://www.tucsonracing.com/results/BLSprint.htm-0'
p447
aS'SENT_http://www.fiba.com/pages/eng/fc/gameCent/p/leagueid/LTU/ot/season/2007/tid/6001711/teamView.html-26'
p448
aS'SENT_http://www.currency-converter.org.uk/currency-rates/convert/NOK-DKK-rate.html-0'
p449
aS'SENT_http://flightaware.com/live/flight/SWA1524/history/20130520/2225Z/KAUS/KLAX/times-2'
p450
aS'SENT_http://www.pdga.com/tour/event/6307-5'
p451
aS'SENT_http://www.nap.edu/openbook.php?record_id=9826&page=172-0'
p452
aS'SENT_http://espn.go.com/mlb/player/stats/_/id/1785/barry-bonds-3'
p453
asS'../models/700112_2_300_0_1_0_15_1e-05_10_5_SINGLE.doc2vec'
p454
(lp455
S'SENT_http://local.moving.com/auto-transport/texas/mcallen.asp-1'
p456
aS'SENT_http://www.columbia.edu/~msj42/AdministrativeDivisions.htm-2'
p457
aS'SENT_http://www.ewtn.com/library/CHISTORY/NMBRGROW.HTM-2'
p458
aS'SENT_http://www.ewtn.com/library/CHRIST/Z97STATS.HTM-6'
p459
aS'SENT_http://www.fao.org/docrep/009/a0699e/A0699E05.htm-5'
p460
aS'SENT_http://www.fao.org/docrep/006/j2459e/j2459e08.htm-2'
p461
aS'SENT_http://websiterecord.com/dm/koc-bao.com-17'
p462
aS'SENT_http://newbudnudes.com.websitetrafficspy.com/-1'
p463
aS'SENT_http://thumbzilla.com.websitetrafficspy.com/-1'
p464
aS'SENT_http://www.fao.org/docrep/006/AD112E/AD112E03.htm-0'
p465
aS'SENT_http://www.arrl.org/results-database?event_id=45021&ofst=1225&ofst=1125-0'
p466
aS'SENT_http://www.fao.org/docrep/006/Y4751E/y4751e08.htm-0'
p467
aS'SENT_http://www.arrl.org/results-database?event_id=22228&ofst=1975&ofst=2100-0'
p468
ag460
aS'SENT_http://www.arrl.org/results-database?event_id=45021&ofst=1725&ofst=2725-0'
p469
asS'../models/700112_1_300_1_1_10_15_1e-05_20_20_SINGLE.doc2vec'
p470
(lp471
S'SENT_http://wwwnc.cdc.gov/eid/article/8/8/02-0239-t2-5'
p472
aS'SENT_http://republicoftogo.com.websitetrafficspy.com/-1'
p473
aS'SENT_http://archive.ahrq.gov/qual/nhdr04/fullreport/Data_Tables/DD_91a.htm-2'
p474
aS'SENT_http://www.ci.redding.ca.us/demographics.html-9'
p475
aS'SENT_http://www.fao.org/docrep/006/Y4751E/y4751e08.htm-0'
p476
aS'SENT_http://www.tsutigers.com/fls/19600/football/2012/stats/tsu0929.htm-11'
p477
aS'SENT_http://www.palomar.edu/athletics/football/paloecc12.htm-12'
p478
aS'SENT_http://www.fsubroncos.com/sports/m-footbl/stats/2008-2009/fsulup.html-13'
p479
aS'SENT_http://www.radioreference.com/apps/db/?fccCallsign=WPYB490-6'
p480
aS'SENT_http://www.guhoyas.com/sports/m-footbl/stats/2011-2012/bufb05.html-11'
p481
aS'SENT_http://www.pro-football-reference.com/coaches/KromAa0.htm-3'
p482
aS'SENT_http://www.fao.org/docrep/009/a0699e/A0699E05.htm-5'
p483
aS'SENT_http://www.pro-football-reference.com/boxscores/200909130gnb.htm-29'
p484
aS'SENT_http://www.militaryspot.com/finance/2012-bah-wisconsin/-15'
p485
aS'SENT_http://www.pro-football-reference.com/boxscores/201209160car.htm-27'
p486
asS'../models/700112_1_300_0_0_0_15_0_20_5_SINGLE.doc2vec'
p487
(lp488
S'SENT_http://www.pdga.com/player/33281/stats/2010-1'
p489
aS'SENT_http://canadiens.nhl.com/club/player.htm?id=8471424-3'
p490
aS'SENT_http://collegehockeyinc.com/stats/players14.php?osum11-5'
p491
aS'SENT_http://www.sports-reference.com/olympics/athletes/bu/krzysztof-bujar-1.html-1'
p492
aS'SENT_http://www.goalnepal.com/tournament_details.php?tid=80-41'
p493
aS'SENT_http://www.baseballprospectus.com/prospect_tracker/results.php?org=sea&rankYear=2012&bsort=AB&bsortDir=DESC&psort=RANK&psortDir=ASC-1'
p494
aS'SENT_http://www.childinfo.org/mics/mics3/archives/uzbekistan/survey0/dataSet/dataDictionary/varGroup5/varGroup0.html-0'
p495
aS'SENT_http://www.radioreference.com/apps/db/?fccCallsign=WNWQ404-6'
p496
aS'SENT_http://www.thebaseballcube.com/players/profile.asp?P=Wes-Helms&Page=GameLogs&Y=1998-5'
p497
aS'SENT_http://stats.espnscrum.com/scrum/rugby/records/player/most_tries_match_position.html?id=189;opposition=1;type=decade-17'
p498
aS'SENT_http://www.wunderground.com/cgi-bin/findweather/getForecast?query=zmw:33401.1.99999&hourly=1&yday=100&weekday=Thursday-3'
p499
aS'SENT_http://www.stevegtennis.com/head-to-head/women/Jill_Craybas/Vera_Dushevina/-3'
p500
aS'SENT_http://www.itsalloverfatman.com/broncos/entry/you-got-served-all-tebow-all-the-time-1'
p501
aS'SENT_http://www.thestreet.com/quote/SOFO/details/income-statement.html-1'
p502
aS'SENT_http://www.zoopla.co.uk/property/white-cottage/hopton-bank/hopton-wafers/kidderminster/dy14-0qf/7601810-0'
p503
asS'../models/700112_1_300_0_0_10_15_1e-05_10_20_SINGLE.doc2vec'
p504
(lp505
S'SENT_http://wow.neoseeker.com/wiki/Draenei-2'
p506
aS'SENT_http://www.fws.gov/asheville/htmls/Maxent/Moxostoma_erythrurum.html-0'
p507
aS'SENT_http://www.thebaseballpage.com/players/jordabr01/stats/batting-post-1'
p508
aS'SENT_http://www.prnewswire.com/news-releases/concord-medical-reports-fourth-quarter-and-full-year-2012-financial-results-199256921.html-5'
p509
aS'SENT_http://www.ebay.co.uk/itm/Cherlone-Satin-Black-Prom-Ball-Cocktail-Party-Evening-Bridesmaid-Dress-UK-16-18-/371018309908-8'
p510
aS'SENT_http://www1.skysports.com/racing/racecards/fairview/21-02-2014/605427/graduation-plate-wilgerbosdrift-triple-tiara-1-march-1'
p511
aS'SENT_http://www.amoeba.com/betty-rubble-the-initiation-mykki-blanco/albums/2956307/-0'
p512
aS'SENT_http://www.eastfieldcollege.edu/AL/Writingcnt/TutorSched.asp-1'
p513
aS'SENT_http://library.ucsc.edu/maps/aerialphotos/index-maps/all/byplace/San%20Juan%20Bautista-0'
p514
aS'SENT_http://www.thebaseballcube.com/history/boxscore.asp?GID=FLO200905150-9'
p515
aS'SENT_http://www.eliteprospects.com/team.php?team=6060&year0=2011-27'
p516
aS'SENT_http://www.radioreference.com/apps/db/?fccCallsign=WPEX689-6'
p517
aS'SENT_http://www.radioreference.com/apps/db/?fccCallsign=KNFE664-6'
p518
aS'SENT_http://www.radioreference.com/apps/db/?fccCallsign=WPYZ732-6'
p519
aS'SENT_http://www.bls.gov/oes/current/oes433031.htm-9'
p520
asS'../models/700112_2_300_0_0_10_15_1e-05_10_5_SINGLE.doc2vec'
p521
(lp522
S'SENT_http://www.securityguide.com/crime-reports/el-paso-tx/-6'
p523
aS'SENT_http://www.securityguide.com/crime-reports/shreveport-la/-6'
p524
aS'SENT_http://www.google.com/patents/US7041794?dq=%22robert+sheehan%22-10'
p525
aS'SENT_http://www.securityguide.com/crime-reports/lexington-ky/-9'
p526
aS'SENT_http://www.securityguide.com/crime-reports/el-paso-tx/-11'
p527
aS'SENT_http://www.pegasuslighting.com/led-low-wattage-thin-under-cabinet-task-lights.html-23'
p528
aS'SENT_http://lv.wikipedia.org/wiki/FIBT_pasaules_%C4%8Dempion%C4%81ts-2'
p529
aS'SENT_http://www.erh.noaa.gov/mmefs/sysStatus2.php-4'
p530
aS'SENT_http://www.purposegames.com/game/1159/info/90-0'
p531
aS'SENT_http://www.purposegames.com/game/anatomy-of-the-human-heart-internal-structures-quiz/info-0'
p532
aS'SENT_http://ashbrook.org/publications/onprin-v1n1-saulnier/-0'
p533
aS'SENT_http://www.timeanddate.com/weather/india/hyderabad/historic?hd=20130215-0'
p534
aS'SENT_http://www.usms.org/comp/poolrecords.php?ri=i&SwimmerID=025VJ-0'
p535
aS'SENT_http://www.moneycontrol.com/india/stockpricequote/hotels/mahindraholidaysresortsindia/MHR-23'
p536
aS'SENT_http://bvbprismschool.org/fee.html-0'
p537
asS'../models/700112_1_300_0_1_0_15_0_20_5_SINGLE.doc2vec'
p538
(lp539
S'SENT_http://www.sports-reference.com/olympics/athletes/ba/kamaluddin-badi-1.html-1'
p540
aS'SENT_http://www.fao.org/docrep/006/Y4751E/y4751e08.htm-0'
p541
aS'SENT_http://supfam.org/SUPERFAMILY/cgi-bin/genome.cgi?sf=47090;cgi_eukd=yes&page=6-27'
p542
aS'SENT_http://sv.wikipedia.org/wiki/V%C3%A4rldsm%C3%A4sterskapen_i_kortbanesimning_2004-2'
p543
aS'SENT_http://genealogy.math.ndsu.nodak.edu/id.php?id=132245-0'
p544
aS'SENT_http://www.unesco.org/education/wef/countryreports/bangladesh/rapport_1.html-4'
p545
aS'SENT_http://www.fao.org/docrep/006/ad672e/ad672e01.htm-1'
p546
aS'SENT_http://www.fao.org/docrep/004/s8374b/S8374b06.htm-0'
p547
aS'SENT_http://www.fda.gov/Drugs/DevelopmentApprovalProcess/DevelopmentResources/Over-the-CounterOTCDrugs/ucm094785.htm-1'
p548
aS'SENT_http://www.fao.org/docrep/009/t0737e/T0737E06.htm-5'
p549
ag540
ag541
aS'SENT_http://www.fao.org/docrep/003/w9634e/W9634e03.htm-0'
p550
ag543
aS'SENT_http://www.usa-people-search.com/names/p/Lemuel-Cabrera-Oceanside-CA-3'
p551
asS'../models/700112_1_300_1_0_0_15_0_10_5_MULTI.doc2vec'
p552
(lp553
S'SENT_http://www.pdga.com/player/33281/stats/2010-1'
p554
aS'SENT_http://canadiens.nhl.com/club/player.htm?id=8471424-3'
p555
aS'SENT_http://collegehockeyinc.com/stats/players14.php?osum11-5'
p556
aS'SENT_http://www.sports-reference.com/olympics/athletes/bu/krzysztof-bujar-1.html-1'
p557
aS'SENT_http://www.goalnepal.com/tournament_details.php?tid=80-41'
p558
aS'SENT_http://www.baseballprospectus.com/prospect_tracker/results.php?org=sea&rankYear=2012&bsort=AB&bsortDir=DESC&psort=RANK&psortDir=ASC-1'
p559
aS'SENT_http://www.childinfo.org/mics/mics3/archives/uzbekistan/survey0/dataSet/dataDictionary/varGroup5/varGroup0.html-0'
p560
aS'SENT_http://www.radioreference.com/apps/db/?fccCallsign=WNWQ404-6'
p561
aS'SENT_http://www.thebaseballcube.com/players/profile.asp?P=Wes-Helms&Page=GameLogs&Y=1998-5'
p562
aS'SENT_http://stats.espnscrum.com/scrum/rugby/records/player/most_tries_match_position.html?id=189;opposition=1;type=decade-17'
p563
aS'SENT_http://www.wunderground.com/cgi-bin/findweather/getForecast?query=zmw:33401.1.99999&hourly=1&yday=100&weekday=Thursday-3'
p564
aS'SENT_http://www.stevegtennis.com/head-to-head/women/Jill_Craybas/Vera_Dushevina/-3'
p565
aS'SENT_http://www.itsalloverfatman.com/broncos/entry/you-got-served-all-tebow-all-the-time-1'
p566
aS'SENT_http://www.thestreet.com/quote/SOFO/details/income-statement.html-1'
p567
aS'SENT_http://www.zoopla.co.uk/property/white-cottage/hopton-bank/hopton-wafers/kidderminster/dy14-0qf/7601810-0'
p568
asS'../models/700112_1_300_1_0_0_15_1e-05_20_5_MULTI.doc2vec'
p569
(lp570
S'SENT_http://www.pdga.com/player/33281/stats/2010-1'
p571
aS'SENT_http://canadiens.nhl.com/club/player.htm?id=8471424-3'
p572
aS'SENT_http://collegehockeyinc.com/stats/players14.php?osum11-5'
p573
aS'SENT_http://www.sports-reference.com/olympics/athletes/bu/krzysztof-bujar-1.html-1'
p574
aS'SENT_http://www.goalnepal.com/tournament_details.php?tid=80-41'
p575
aS'SENT_http://www.baseballprospectus.com/prospect_tracker/results.php?org=sea&rankYear=2012&bsort=AB&bsortDir=DESC&psort=RANK&psortDir=ASC-1'
p576
aS'SENT_http://www.childinfo.org/mics/mics3/archives/uzbekistan/survey0/dataSet/dataDictionary/varGroup5/varGroup0.html-0'
p577
aS'SENT_http://www.radioreference.com/apps/db/?fccCallsign=WNWQ404-6'
p578
aS'SENT_http://www.thebaseballcube.com/players/profile.asp?P=Wes-Helms&Page=GameLogs&Y=1998-5'
p579
aS'SENT_http://stats.espnscrum.com/scrum/rugby/records/player/most_tries_match_position.html?id=189;opposition=1;type=decade-17'
p580
aS'SENT_http://www.wunderground.com/cgi-bin/findweather/getForecast?query=zmw:33401.1.99999&hourly=1&yday=100&weekday=Thursday-3'
p581
aS'SENT_http://www.stevegtennis.com/head-to-head/women/Jill_Craybas/Vera_Dushevina/-3'
p582
aS'SENT_http://www.itsalloverfatman.com/broncos/entry/you-got-served-all-tebow-all-the-time-1'
p583
aS'SENT_http://www.thestreet.com/quote/SOFO/details/income-statement.html-1'
p584
aS'SENT_http://www.zoopla.co.uk/property/white-cottage/hopton-bank/hopton-wafers/kidderminster/dy14-0qf/7601810-0'
p585
asS'../models/700112_1_300_0_1_0_15_1e-05_10_20_MULTI.doc2vec'
p586
(lp587
S'SENT_http://meps.ahrq.gov/mepsweb/data_files/publications/rf1/rf1.shtml-7'
p588
aS'SENT_http://www.mass.gov/bb/h1/fy12h1/prnt_12/exec_12/pbudbrief1.htm-0'
p589
aS'SENT_http://www.weather-forecast.com/locations/Tirano-1'
p590
aS'SENT_http://www.fivb.org/EN/Volleyball/Competitions/Junior/women/2003/Teams/Team_Roster.asp?Code=ALG-10'
p591
aS'SENT_http://archive.unu.edu/unupress/unupbooks/80815e/80815E08.htm-6'
p592
aS'SENT_http://www.fao.org/docrep/006/j2459e/j2459e08.htm-2'
p593
aS'SENT_http://www.carsafetyreference.com/dodge-stratus-2006/-0'
p594
aS'SENT_http://himtcollege.com/fees.php-0'
p595
aS'SENT_http://chartsbin.com/view/565-0'
p596
aS'SENT_http://www.lasvegassun.com/politics/voterguide/2008/caucus-locations/-81'
p597
aS'SENT_http://www.arrl.org/results-database?event_id=13653&ofst=1225&ofst=1100-0'
p598
aS'SENT_http://www.arrl.org/results-database?event_id=22228&ofst=975&ofst=900-0'
p599
aS'SENT_http://www.arrl.org/results-database?event_id=22228&ofst=2225&ofst=2200-0'
p600
aS'SENT_http://www.arrl.org/results-database?event_id=13652&ofst=800-0'
p601
aS'SENT_http://www.fao.org/docrep/009/a0699e/A0699E05.htm-5'
p602
asS'../models/700112_1_300_1_0_0_15_1e-05_20_20_MULTI.doc2vec'
p603
(lp604
S'SENT_http://www.pdga.com/player/33281/stats/2010-1'
p605
aS'SENT_http://canadiens.nhl.com/club/player.htm?id=8471424-3'
p606
aS'SENT_http://collegehockeyinc.com/stats/players14.php?osum11-5'
p607
aS'SENT_http://www.sports-reference.com/olympics/athletes/bu/krzysztof-bujar-1.html-1'
p608
aS'SENT_http://www.goalnepal.com/tournament_details.php?tid=80-41'
p609
aS'SENT_http://www.baseballprospectus.com/prospect_tracker/results.php?org=sea&rankYear=2012&bsort=AB&bsortDir=DESC&psort=RANK&psortDir=ASC-1'
p610
aS'SENT_http://www.childinfo.org/mics/mics3/archives/uzbekistan/survey0/dataSet/dataDictionary/varGroup5/varGroup0.html-0'
p611
aS'SENT_http://www.radioreference.com/apps/db/?fccCallsign=WNWQ404-6'
p612
aS'SENT_http://www.thebaseballcube.com/players/profile.asp?P=Wes-Helms&Page=GameLogs&Y=1998-5'
p613
aS'SENT_http://stats.espnscrum.com/scrum/rugby/records/player/most_tries_match_position.html?id=189;opposition=1;type=decade-17'
p614
aS'SENT_http://www.wunderground.com/cgi-bin/findweather/getForecast?query=zmw:33401.1.99999&hourly=1&yday=100&weekday=Thursday-3'
p615
aS'SENT_http://www.stevegtennis.com/head-to-head/women/Jill_Craybas/Vera_Dushevina/-3'
p616
aS'SENT_http://www.itsalloverfatman.com/broncos/entry/you-got-served-all-tebow-all-the-time-1'
p617
aS'SENT_http://www.thestreet.com/quote/SOFO/details/income-statement.html-1'
p618
aS'SENT_http://www.zoopla.co.uk/property/white-cottage/hopton-bank/hopton-wafers/kidderminster/dy14-0qf/7601810-0'
p619
asS'../models/700112_1_300_0_0_10_15_0_10_5_SINGLE.doc2vec'
p620
(lp621
S'SENT_http://www.ultimatemets.com/gamedetail.php?gameno=6435-11'
p622
aS'SENT_http://www.foxsports.com/collegebasketball/headToHeadTeamResults?statsId1=460&statsId2=684&gameId=201303090684-5'
p623
aS'SENT_http://www.watchonlineforfree.co.uk/movies/watch/mean-machine/-1'
p624
aS'SENT_http://www.thebaseballcube.com/players/profile.asp?P=Steven-Pratt-2'
p625
aS'SENT_http://www.watchonlineforfree.co.uk/movies/watch/leonard-rossiter-british-comedy-heroes/-1'
p626
aS'SENT_http://websiterecord.com/dm/quickvisio.com-14'
p627
aS'SENT_http://panthers.nhl.com/club/page.htm?id=62392-13'
p628
aS'SENT_http://websiterecord.com/dm/videoculinary.ru-23'
p629
aS'SENT_http://www.swfinstitute.org/tag/macroeconomics/-0'
p630
aS'SENT_http://blog.zoopla.co.uk/tag/property-market/-0'
p631
aS'SENT_http://www.education.gov.uk/cgi-bin/schools/performance/school.pl?urn=138442-7'
p632
aS'SENT_http://www.wunderground.com/history/airport/KOFK/2013/11/17/DailyHistory.html?theprefset=observations_details&theprefvalue=1-4'
p633
aS'SENT_http://www.clrsearch.com/Burtonsville-Demographics/MD/-19'
p634
aS'SENT_http://archive.unu.edu/unupress/unupbooks/80129e/80129E07.htm-2'
p635
aS'SENT_http://www.weatherbase.com/weather/weatherhourly.php3?s=614150&date=2013-01-10&cityname=Port-Etienne%2C+Dakhlet+Nouadhibou%2C+Mauritania&units=-14'
p636
asS'../models/700112_1_300_1_1_10_15_0_10_5_SINGLE.doc2vec'
p637
(lp638
S'SENT_http://simple.wikipedia.org/wiki/List_of_countries_by_GDP_(PPP)-2'
p639
aS'SENT_http://www.economywatch.com/world-country/industry-sector.html-0'
p640
aS'SENT_http://forgeofempires.wikia.com/wiki/Efficiency-1'
p641
aS'SENT_http://www.hagerty.com/price-guide/1973-Ford-Galaxie_500-0'
p642
aS'SENT_http://www.angelfire.com/ak/EgyptianSports/EgyptinOlympics.html-15'
p643
aS'SENT_http://www.fao.org/docrep/006/ad672e/ad672e01.htm-1'
p644
aS'SENT_http://www.unrwa.org/newsroom/emergency-reports/unrwa-syria-crisis-situation-update-issue-31-2'
p645
aS'SENT_http://www.fda.gov/Drugs/DevelopmentApprovalProcess/DevelopmentResources/Over-the-CounterOTCDrugs/ucm091736.htm-1'
p646
aS'SENT_http://ag.arizona.edu/arec/wemc/papers/ImpactsonWine.html-3'
p647
aS'SENT_http://www.mongabay.com/deforestation_rate_tables.htm-18'
p648
aS'SENT_http://www.baseball-reference.com/players/r/romerj.01.shtml-11'
p649
aS'SENT_http://www.baseball-reference.com/players/w/wellsve01.shtml-8'
p650
aS'SENT_http://www.baseball-reference.com/players/i/ibanera01.shtml-9'
p651
aS'SENT_http://www.baseball-reference.com/players/c/chenbr01.shtml-10'
p652
aS'SENT_http://www.baseball-reference.com/players/k/kennead01.shtml-8'
p653
asS'../models/700112_2_300_0_0_0_15_1e-05_10_20_SINGLE.doc2vec'
p654
(lp655
S'SENT_http://www.pdga.com/player/33281/stats/2010-1'
p656
aS'SENT_http://canadiens.nhl.com/club/player.htm?id=8471424-3'
p657
aS'SENT_http://collegehockeyinc.com/stats/players14.php?osum11-5'
p658
aS'SENT_http://www.sports-reference.com/olympics/athletes/bu/krzysztof-bujar-1.html-1'
p659
aS'SENT_http://www.goalnepal.com/tournament_details.php?tid=80-41'
p660
aS'SENT_http://www.baseballprospectus.com/prospect_tracker/results.php?org=sea&rankYear=2012&bsort=AB&bsortDir=DESC&psort=RANK&psortDir=ASC-1'
p661
aS'SENT_http://www.childinfo.org/mics/mics3/archives/uzbekistan/survey0/dataSet/dataDictionary/varGroup5/varGroup0.html-0'
p662
aS'SENT_http://www.radioreference.com/apps/db/?fccCallsign=WNWQ404-6'
p663
aS'SENT_http://www.thebaseballcube.com/players/profile.asp?P=Wes-Helms&Page=GameLogs&Y=1998-5'
p664
aS'SENT_http://stats.espnscrum.com/scrum/rugby/records/player/most_tries_match_position.html?id=189;opposition=1;type=decade-17'
p665
aS'SENT_http://www.wunderground.com/cgi-bin/findweather/getForecast?query=zmw:33401.1.99999&hourly=1&yday=100&weekday=Thursday-3'
p666
aS'SENT_http://www.stevegtennis.com/head-to-head/women/Jill_Craybas/Vera_Dushevina/-3'
p667
aS'SENT_http://www.itsalloverfatman.com/broncos/entry/you-got-served-all-tebow-all-the-time-1'
p668
aS'SENT_http://www.thestreet.com/quote/SOFO/details/income-statement.html-1'
p669
aS'SENT_http://www.zoopla.co.uk/property/white-cottage/hopton-bank/hopton-wafers/kidderminster/dy14-0qf/7601810-0'
p670
asS'../models/700112_1_300_1_0_0_15_1e-05_20_5_SINGLE.doc2vec'
p671
(lp672
S'SENT_http://www.pdga.com/player/33281/stats/2010-1'
p673
aS'SENT_http://canadiens.nhl.com/club/player.htm?id=8471424-3'
p674
aS'SENT_http://collegehockeyinc.com/stats/players14.php?osum11-5'
p675
aS'SENT_http://www.sports-reference.com/olympics/athletes/bu/krzysztof-bujar-1.html-1'
p676
aS'SENT_http://www.goalnepal.com/tournament_details.php?tid=80-41'
p677
aS'SENT_http://www.baseballprospectus.com/prospect_tracker/results.php?org=sea&rankYear=2012&bsort=AB&bsortDir=DESC&psort=RANK&psortDir=ASC-1'
p678
aS'SENT_http://www.childinfo.org/mics/mics3/archives/uzbekistan/survey0/dataSet/dataDictionary/varGroup5/varGroup0.html-0'
p679
aS'SENT_http://www.radioreference.com/apps/db/?fccCallsign=WNWQ404-6'
p680
aS'SENT_http://www.thebaseballcube.com/players/profile.asp?P=Wes-Helms&Page=GameLogs&Y=1998-5'
p681
aS'SENT_http://stats.espnscrum.com/scrum/rugby/records/player/most_tries_match_position.html?id=189;opposition=1;type=decade-17'
p682
aS'SENT_http://www.wunderground.com/cgi-bin/findweather/getForecast?query=zmw:33401.1.99999&hourly=1&yday=100&weekday=Thursday-3'
p683
aS'SENT_http://www.stevegtennis.com/head-to-head/women/Jill_Craybas/Vera_Dushevina/-3'
p684
aS'SENT_http://www.itsalloverfatman.com/broncos/entry/you-got-served-all-tebow-all-the-time-1'
p685
aS'SENT_http://www.thestreet.com/quote/SOFO/details/income-statement.html-1'
p686
aS'SENT_http://www.zoopla.co.uk/property/white-cottage/hopton-bank/hopton-wafers/kidderminster/dy14-0qf/7601810-0'
p687
asS'../models/700112_1_300_0_0_0_15_0_20_20_MULTI.doc2vec'
p688
(lp689
S'SENT_http://www.pdga.com/player/33281/stats/2010-1'
p690
aS'SENT_http://canadiens.nhl.com/club/player.htm?id=8471424-3'
p691
aS'SENT_http://collegehockeyinc.com/stats/players14.php?osum11-5'
p692
aS'SENT_http://www.sports-reference.com/olympics/athletes/bu/krzysztof-bujar-1.html-1'
p693
aS'SENT_http://www.goalnepal.com/tournament_details.php?tid=80-41'
p694
aS'SENT_http://www.baseballprospectus.com/prospect_tracker/results.php?org=sea&rankYear=2012&bsort=AB&bsortDir=DESC&psort=RANK&psortDir=ASC-1'
p695
aS'SENT_http://www.childinfo.org/mics/mics3/archives/uzbekistan/survey0/dataSet/dataDictionary/varGroup5/varGroup0.html-0'
p696
aS'SENT_http://www.radioreference.com/apps/db/?fccCallsign=WNWQ404-6'
p697
aS'SENT_http://www.thebaseballcube.com/players/profile.asp?P=Wes-Helms&Page=GameLogs&Y=1998-5'
p698
aS'SENT_http://stats.espnscrum.com/scrum/rugby/records/player/most_tries_match_position.html?id=189;opposition=1;type=decade-17'
p699
aS'SENT_http://www.wunderground.com/cgi-bin/findweather/getForecast?query=zmw:33401.1.99999&hourly=1&yday=100&weekday=Thursday-3'
p700
aS'SENT_http://www.stevegtennis.com/head-to-head/women/Jill_Craybas/Vera_Dushevina/-3'
p701
aS'SENT_http://www.itsalloverfatman.com/broncos/entry/you-got-served-all-tebow-all-the-time-1'
p702
aS'SENT_http://www.thestreet.com/quote/SOFO/details/income-statement.html-1'
p703
aS'SENT_http://www.zoopla.co.uk/property/white-cottage/hopton-bank/hopton-wafers/kidderminster/dy14-0qf/7601810-0'
p704
asS'../models/700112_1_300_1_1_0_15_0_20_20_SINGLE.doc2vec'
p705
(lp706
S'SENT_http://www.holidaylettings.co.uk/rentals/rates/354228-0'
p707
aS'SENT_http://www.spanishdict.com/conjugate/sentence-4'
p708
aS'SENT_http://www.sports-reference.com/olympics/winter/1998/FSK/mens-singles-free-skating.html-5'
p709
aS'SENT_http://www.angelfire.com/ak/EgyptianSports/AfricanCup84.html-2'
p710
aS'SENT_http://www.sports-reference.com/cbb/players/tyler-hines-1.html-3'
p711
aS'SENT_http://www.seetorontonow.com/tourismnow/member-jan2010o.html-5'
p712
aS'SENT_http://blog.mikegalante.com/tag/chicago/-1'
p713
aS'SENT_http://amplifyyourvoice.org/category/contraception-0'
p714
aS'SENT_http://hirr.hartsem.edu/research/orthodoxarticle2.html-8'
p715
aS'SENT_http://www.cattco.org/files/elections/1997/01/townallegany.html-5'
p716
aS'SENT_http://www.actitime.com/features.html-15'
p717
aS'SENT_http://bleacherreport.com/articles/2124367-mike-rosenbaums-top-50-mlb-prospects-ahead-of-all-star-futures-game-38'
p718
aS'SENT_http://www.isthewebsafe.com/Safety/www.fomny.org-2'
p719
aS'SENT_http://www.prnewswire.com/news-releases/first-resource-bank-announces-third-quarter-results-175219971.html-3'
p720
aS'SENT_http://www.avg.com/de-de/avg-rescue-cd-download?addtocart=.1.null.0.12m-0'
p721
asS'../models/700112_1_300_1_1_10_15_0_20_20_SINGLE.doc2vec'
p722
(lp723
S'SENT_http://www.census.gov/library/working-papers/2001/demo/POP-twps0063.html-6'
p724
aS'SENT_http://games.espn.go.com/uber/entry?username=TheGoldenUber-3'
p725
aS'SENT_http://www.usms.org/hist/oly/olympian.php?oid=846-0'
p726
aS'SENT_http://www.angelfire.com/ak/EgyptianSports/AfricanCup90.html-2'
p727
aS'SENT_http://simple.wikipedia.org/wiki/List_of_countries_by_GDP_(PPP)-2'
p728
aS'SENT_http://www.bloodhorse.com/auctions-tool/hip-search/horse?Column=Status&Direction=Ascending&horseid=6946&horsename=Belong%20to%20Me&horsesearchtype=Sire-3'
p729
aS'SENT_http://www.bloodhorse.com/auctions-tool/hip-search/horse?page=10&horseId=6484&horseSearchType=Sire&horseName=Quiet%20American&direction=Ascending-7'
p730
aS'SENT_http://www.bloodhorse.com/auctions-tool/hip-search/horse?page=10&horseId=335324&horseSearchType=Sire&horseName=Broken%20Vow&direction=Ascending-3'
p731
aS'SENT_http://www.usg.edu/research/digest/2001/fac_staff/2.phtml-4'
p732
aS"SENT_http://www.bloodhorse.com/auctions-tool/hip-search/horse?Column=Name&Direction=Ascending&horseid=5042&horsename=Giant's%20Causeway&horsesearchtype=Sire&page=2-7"
p733
aS'SENT_http://www.jobs-salary.com/sumner-salary-ms.htm-2'
p734
aS'SENT_http://www.sec.gov/Archives/edgar/data/1310313/000118811212000048/t72288_10ka.htm-12'
p735
aS'SENT_http://www.baseball-reference.com/players/m/milletr02.shtml?sr-10'
p736
aS'SENT_http://www.baseball-reference.com/players/w/wellsve01.shtml-8'
p737
aS'SENT_http://www.jobs-salary.com/moorhead-salary-ms.htm-2'
p738
asS'../models/700112_2_100_0_0_10_15_1e-05_10_5_SINGLE.doc2vec'
p739
(lp740
S'SENT_http://www.securityguide.com/crime-reports/el-paso-tx/-6'
p741
aS'SENT_http://www.securityguide.com/crime-reports/el-paso-tx/-11'
p742
aS'SENT_http://www.securityguide.com/crime-reports/fayetteville-nc/-3'
p743
aS'SENT_http://www.securityguide.com/crime-reports/albuquerque-nm/-3'
p744
aS'SENT_http://www.securityguide.com/crime-reports/el-paso-tx/-9'
p745
aS'SENT_http://www.purposegames.com/game/1106/info/2-0'
p746
aS'SENT_http://www.moneycontrol.com/india/stockpricequote/computerssoftware/patnicomputersystems/PCS02-8'
p747
aS'SENT_http://clinicaltrials.gov/ct2/show/results/NCT00477204-7'
p748
aS'SENT_http://www.biomedsearch.com/nih/Population-based-study-laparoscopic-colorectal/23288592.html-6'
p749
aS'SENT_http://no.wikipedia.org/wiki/Kanye_West-3'
p750
aS'SENT_http://www.boxofficemojo.com/movies/?page=intl&country=TW&id=panicroom.htm-6'
p751
aS'SENT_http://bvbprismschool.org/fee.html-0'
p752
aS'SENT_http://archive.dyestat.com/?pg=dyestatcal-2009-Track--Road-To-State-State-Meet-Final-Results-26'
p753
aS'SENT_http://www.biomedsearch.com/nih/Cardiovascular-magnetic-resonance-scar-ischemia/18950527.html-7'
p754
aS'SENT_http://www.vivaelbirdos.com/cardinals-minor-leagues/2012/11/4/3599246/a-closer-look-at-the-cardinals-left-handed-starters-in-aaa?ref=fangraphs-0'
p755
asS'../models/700112_1_300_0_1_0_15_0_20_20_SINGLE.doc2vec'
p756
(lp757
S'SENT_http://banglacricket.com/html/features/article.php?item=411-5'
p758
aS'SENT_http://www.angelfire.com/ak/EgyptianSports/AfricanCup96.html-1'
p759
aS'SENT_http://www.digplanet.com/wiki/English-speaking_world-4'
p760
aS'SENT_http://support.lenovo.com/de_DE/product-and-parts/detail.page?LegacyDocID=MIGR-73083-22'
p761
aS'SENT_http://chartsbin.com/view/565-0'
p762
aS'SENT_http://en.wikipedia.org/wiki/0207_%26_0208-1'
p763
aS'SENT_http://en.wikipedia.org/wiki/UK_telephone_code_misconceptions-1'
p764
aS'SENT_http://oseda.missouri.edu/tables/disability/senior/disable_types_2000_stlco_tra.html-1'
p765
aS'SENT_http://www.eastvalleytribune.com/business/article_e347d16e-0945-11e0-a73c-001cc4c03286.html-0'
p766
aS'SENT_http://www.bu.edu/isso/about/statistics/student/2011/country.html-7'
p767
aS'SENT_http://www.twstats.com/en26/index.php?page=rankings&mode=villages-1'
p768
aS'SENT_http://webindetail.com/ws/ppshk.com-0'
p769
aS'SENT_http://www.fao.org/docrep/006/Y4751E/y4751e08.htm-0'
p770
aS'SENT_http://www.isthewebsafe.com/Safety/www.warez-bb.org-2'
p771
aS'SENT_http://www.usa-people-search.com/names/p/Alexis-Qualls-3'
p772
asS'../models/700112_1_300_0_1_0_15_0_10_5_SINGLE.doc2vec'
p773
(lp774
S'SENT_http://www.sports-reference.com/olympics/athletes/ba/kamaluddin-badi-1.html-1'
p775
aS'SENT_http://en.wikipedia.org/wiki/Gymnastics_at_the_Summer_Olympics-8'
p776
aS'SENT_http://www.fao.org/docrep/003/w9634e/W9634e03.htm-0'
p777
aS'SENT_http://borangwww.www.seodigger.com/de/autoprinz.de-3'
p778
aS'SENT_http://www.sports-reference.com/olympics/athletes/sr/goran-srbinovski-1.html-1'
p779
aS'SENT_http://www.fao.org/docrep/006/ad672e/ad672e01.htm-1'
p780
aS'SENT_http://www.unesco.org/education/wef/countryreports/bangladesh/rapport_1.html-4'
p781
aS'SENT_http://www.clinicaltrials.gov/ct2/show/results/NCT00284180-7'
p782
aS'SENT_http://www.bringonthecats.com/2014/2/23/5439806/sochi-olympics-2014-day-17-recap-and-the-final-analysis-19'
p783
aS'SENT_http://www.bringonthecats.com/2014/2/22/5437418/sochi-2014-winter-olympics-day-16-recap-final-day-schedule-how-to-watch-and-more-0'
p784
ag775
ag777
aS'SENT_http://www.viagogo.com/cl/Entradas-Conciertos/Indie-Rock/Foreigner-Entradas-0'
p785
ag776
aS'SENT_http://www.viagogo.co.uk/Sports-Tickets/American-Football/NFL/San-Diego-Chargers-Tickets-0'
p786
asS'../models/700112_2_300_0_0_10_15_0_10_20_SINGLE.doc2vec'
p787
(lp788
S'SENT_http://www.newnation.org/NNN-news-aboriginal.html-75'
p789
aS'SENT_http://lwd.dol.state.nj.us/labor/lpa/dmograph/est/stpest99.htm-0'
p790
aS'SENT_http://www.columbia.edu/~msj42/AdministrativeDivisions.htm-2'
p791
aS'SENT_http://www.newgeography.com/content/002566-los-angeles-gets-old-1'
p792
aS'SENT_http://www.blackwellpublishing.com/acrmeeting/abstract.asp?MeetingID=774&id=90228-0'
p793
aS'SENT_http://www.fivb.org/EN/Volleyball/Competitions/Youth/Women/2009/Photos.asp?Tourn=MJ2009-1'
p794
aS'SENT_http://www.fivb.org/EN/Volleyball/Competitions/Junior/women/2009/Photos.asp?Tourn=WJ2009-1'
p795
aS'SENT_http://www.fivb.org/EN/volleyball/competitions/Youth/Women/2009/Photos.asp?Tourn=GY2009-1'
p796
aS'SENT_http://www.fao.org/docrep/006/j2459e/j2459e08.htm-2'
p797
aS'SENT_http://www.vueling.com/es/servicios-vueling/informacion-de-vuelos/vuelos-de-hoy?destino=BDS-0'
p798
aS'SENT_http://www.radioreference.com/apps/db/?fccCallsign=KRZ275-6'
p799
aS'SENT_http://www.radioreference.com/apps/db/?fccCallsign=KBH341-6'
p800
aS'SENT_http://www.londonstockexchange.com/exchange/prices-and-markets/ETFs/company-summary.html?fourWayKey=LU0274210672LUGBXETFS-4'
p801
aS'SENT_http://www.londonstockexchange.com/exchange/prices-and-markets/stocks/summary/company-summary.html?fourWayKey=GB00B0DG1X47GBGBXAIM-4'
p802
aS'SENT_http://www.radioreference.com/apps/db/?fccCallsign=WPNR774&s=loc-6'
p803
asS'../models/700112_1_300_0_1_0_15_0_10_20_SINGLE.doc2vec'
p804
(lp805
S'SENT_http://buelahman.wordpress.com/2010/11/-1'
p806
aS'SENT_http://banglacricket.com/html/features/article.php?item=411-5'
p807
aS'SENT_http://support.lenovo.com/de_DE/product-and-parts/detail.page?LegacyDocID=MIGR-73083-22'
p808
aS'SENT_http://republicoftogo.com.websitetrafficspy.com/-1'
p809
aS'SENT_http://schools-wikipedia.org/wp/e/English_language.htm-2'
p810
aS'SENT_http://www.fao.org/docrep/006/ad672e/ad672e01.htm-1'
p811
aS'SENT_http://www.bringonthecats.com/2014/2/22/5437418/sochi-2014-winter-olympics-day-16-recap-final-day-schedule-how-to-watch-and-more-0'
p812
aS'SENT_http://www.bringonthecats.com/2014/2/23/5439806/sochi-olympics-2014-day-17-recap-and-the-final-analysis-19'
p813
aS'SENT_http://www.unrwa.org/newsroom/emergency-reports/unrwa-syria-crisis-situation-update-issue-31-2'
p814
aS'SENT_http://stats.bls.gov/ro3/cesqwash.htm-1'
p815
ag809
aS'SENT_http://www.twstats.com/en26/index.php?page=rankings&mode=villages-1'
p816
aS'SENT_http://webindetail.com/ws/ppshk.com-0'
p817
aS'SENT_http://cricketarchive.com/Nottinghamshire/Scorecards/39/39458.html-2'
p818
aS'SENT_http://www.pro-football-reference.com/coaches/PalmCh0.htm-3'
p819
asS'../models/700112_1_300_1_0_10_15_1e-05_20_20_MULTI.doc2vec'
p820
(lp821
S'SENT_http://www.ihigh.com/eihss/article_202990.html-3'
p822
aS'SENT_http://baseballanalysts.com/archives/designated_hitter/index.php-84'
p823
aS'SENT_http://www.ous.edu/sites/default/files/dept/ir/reports/fact_book_2000/edsource.htm-0'
p824
aS'SENT_http://www.fao.org/docrep/003/x6905e/x6905e0h.htm-0'
p825
aS'SENT_http://comparetheleagues.com/-0'
p826
aS'SENT_http://caps.fool.com/Ticker/TAL/Scorecard.aspx?source=itxwebtxt0000016-0'
p827
aS'SENT_http://www.currency-converter.org.uk/currency-rates/convert/RUB-SEK-rate.html-0'
p828
aS'SENT_http://penguins.nhl.com/club/player.htm?id=8464959&view=stats-3'
p829
aS'SENT_http://caps.fool.com/Ticker/UHT/Scorecard.aspx?source=itxwebtxt0000016-0'
p830
aS'SENT_http://www.mcgillhose.com/site/products/mh/mulch.htm-0'
p831
aS'SENT_http://www.timeanddate.com/weather/uk/road-town/historic?hd=20131020-0'
p832
aS'SENT_http://www.ewtn.com/library/CHRIST/Z97STATS.HTM-6'
p833
aS'SENT_http://www.lulus.com/products/roxy-bustin-out-black-and-cream-polka-dot-dress/114146.html-1'
p834
aS'SENT_http://www.radioreference.com/apps/db/?fccCallsign=WPUV635-6'
p835
aS'SENT_http://earthquake.usgs.gov/earthquakes/pager/events/us/b000a66u/index.html-3'
p836
asS'../models/700112_1_300_1_1_10_15_1e-05_20_5_MULTI.doc2vec'
p837
(lp838
S'SENT_http://www.twstats.co.uk/uk4/index.php?page=player&mode=villages&id=41108-3'
p839
aS'SENT_http://nces.ed.gov/ccd/tables/2010313_05.asp-3'
p840
aS'SENT_http://www.ewtn.com/library/CHISTORY/NMBRGROW.HTM-2'
p841
aS'SENT_http://simple.wikipedia.org/wiki/List_of_countries_by_GDP_(PPP)-2'
p842
aS'SENT_http://www.twstats.com/en26/index.php?page=rankings&mode=villages-1'
p843
aS'SENT_http://en.wikipedia.org/wiki/0207_%26_0208-1'
p844
aS'SENT_http://maps.met.police.uk/access.php?area=E01002876&sort=rate&order=a-3'
p845
aS'SENT_http://www.amoeba.com/tremors-sohn/albums/3178869/-0'
p846
aS'SENT_http://maps.met.police.uk/access.php?area=E01002921&sort=count&order=d-3'
p847
aS'SENT_http://www.sports-reference.com/cbb/players/matt-labove-1.html-3'
p848
ag839
aS'SENT_http://www.ewtn.com/library/CHRIST/Z97STATS.HTM-6'
p849
aS'SENT_http://www.cga.ct.gov/2009/rpt/2009-R-0383.htm-16'
p850
aS'SENT_http://www.fao.org/docrep/006/Y4751E/y4751e08.htm-0'
p851
aS'SENT_http://www.realtor.com/local/Westchester-County_NY/lifestyle-1'
p852
asS'../models/700112_2_100_0_1_0_15_0_10_20_SINGLE.doc2vec'
p853
(lp854
S'SENT_http://whc.unesco.org/en/list/781/multiple=1&unique_number=924-3'
p855
aS'SENT_http://www.cc.gatech.edu/gvu/user_surveys/survey-1997-04/graphs/general/Major_Geographical_Location.html-0'
p856
aS'SENT_http://urlm.co.uk/www.archive3d.net-3'
p857
aS'SENT_http://www.sports-reference.com/olympics/summer/2008/SWI/womens-200-metres-individual-medley-semi-finals.html-1'
p858
aS'SENT_http://www.worlddancesport.org/Event/Competition/World_Championship-Leipzig-18881/Adult-Latin-43633/Ranking-3'
p859
aS'SENT_http://www.webpages.uidaho.edu/~mbolin/trivedi-joshi.htm-2'
p860
aS'SENT_http://samhsa.gov/data/NSDUH/2k11MH_FindingsandDetTables/2K11MHDetTabs/NSDUH-MHDetTabsSect1pe2011.htm-35'
p861
aS'SENT_http://www.samhsa.gov/data/NSDUH/2k11MH_FindingsandDetTables/2K11MHDetTabs/NSDUH-MHDetTabsSect1se2011.htm-53'
p862
aS'SENT_http://www.samhsa.gov/data/NSDUH/2k11MH_FindingsandDetTables/2K11MHDetTabs/NSDUH-MHDetTabsSect1se2011.htm-56'
p863
aS'SENT_http://www.soccerway.com/matches/2012/02/15/europe/uefa-champions-league/fk-zenit-sankt-petersburg/benfica/1237465/head2head/-2'
p864
aS'SENT_http://www.jobs-salary.com/burnsville-salary-ms.htm-2'
p865
aS'SENT_http://www.jobs-salary.com/pittsboro-salary-ms.htm-2'
p866
aS'SENT_http://www.jobs-salary.com/montpelier-salary-ms.htm-2'
p867
aS'SENT_http://www.fao.org/docrep/006/Y4751E/y4751e08.htm-0'
p868
aS'SENT_http://www.jobs-salary.com/tishomingo-salary-ms.htm-2'
p869
asS'../models/700112_1_300_1_0_0_15_0_10_5_SINGLE.doc2vec'
p870
(lp871
S'SENT_http://www.pdga.com/player/33281/stats/2010-1'
p872
aS'SENT_http://canadiens.nhl.com/club/player.htm?id=8471424-3'
p873
aS'SENT_http://collegehockeyinc.com/stats/players14.php?osum11-5'
p874
aS'SENT_http://www.sports-reference.com/olympics/athletes/bu/krzysztof-bujar-1.html-1'
p875
aS'SENT_http://www.goalnepal.com/tournament_details.php?tid=80-41'
p876
aS'SENT_http://www.baseballprospectus.com/prospect_tracker/results.php?org=sea&rankYear=2012&bsort=AB&bsortDir=DESC&psort=RANK&psortDir=ASC-1'
p877
aS'SENT_http://www.childinfo.org/mics/mics3/archives/uzbekistan/survey0/dataSet/dataDictionary/varGroup5/varGroup0.html-0'
p878
aS'SENT_http://www.radioreference.com/apps/db/?fccCallsign=WNWQ404-6'
p879
aS'SENT_http://www.thebaseballcube.com/players/profile.asp?P=Wes-Helms&Page=GameLogs&Y=1998-5'
p880
aS'SENT_http://stats.espnscrum.com/scrum/rugby/records/player/most_tries_match_position.html?id=189;opposition=1;type=decade-17'
p881
aS'SENT_http://www.wunderground.com/cgi-bin/findweather/getForecast?query=zmw:33401.1.99999&hourly=1&yday=100&weekday=Thursday-3'
p882
aS'SENT_http://www.stevegtennis.com/head-to-head/women/Jill_Craybas/Vera_Dushevina/-3'
p883
aS'SENT_http://www.itsalloverfatman.com/broncos/entry/you-got-served-all-tebow-all-the-time-1'
p884
aS'SENT_http://www.thestreet.com/quote/SOFO/details/income-statement.html-1'
p885
aS'SENT_http://www.zoopla.co.uk/property/white-cottage/hopton-bank/hopton-wafers/kidderminster/dy14-0qf/7601810-0'
p886
asS'../models/700112_1_300_0_1_10_15_0_10_20_MULTI.doc2vec'
p887
(lp888
S'SENT_http://www.ewtn.com/library/CHRIST/Z97STATS.HTM-6'
p889
aS'SENT_http://www.rita.dot.gov/bts/sites/rita.dot.gov.bts/files/publications/the_changing_face_of_transportation/html/table_01_01.html-0'
p890
aS'SENT_http://www.twstats.com/en26/index.php?page=rankings&mode=villages-1'
p891
aS'SENT_http://www.fao.org/docrep/006/Y4751E/y4751e08.htm-0'
p892
aS'SENT_http://www.fao.org/docrep/009/a0699e/A0699E05.htm-5'
p893
aS'SENT_http://www.fao.org/docrep/006/ad672e/ad672e01.htm-1'
p894
aS'SENT_http://www.samhsa.gov/data/DASIS/teds08/TEDS2k8Ntbl2.1b.htm-0'
p895
aS'SENT_http://www.soccerway.com/matches/2012/09/29/england/premier-league/sunderland-association-football-club/wigan-athletic-football-club/1293740/head2head/-2'
p896
aS'SENT_http://wormstedt.com/Titanic/analysis.html-1'
p897
aS'SENT_http://www.soccerway.com/matches/2012/12/02/bolivia/nacional-b/ciclon/wilstermann-cooperativa/1417730/head2head/-2'
p898
aS'SENT_http://www.wikinvest.com/stock/British_Sky_Broadcasting_Group_(BSY)/Filing/20-F/2008/F83534787-188'
p899
aS'SENT_http://www.wright.edu/administration/aaup/cba-nte-nego/art26.html-5'
p900
ag893
ag891
aS'SENT_http://www.twstats.co.uk/uk4/index.php?page=player&mode=villages&id=41108-3'
p901
asS'../models/700112_1_300_1_1_0_15_1e-05_10_5_SINGLE.doc2vec'
p902
(lp903
S'SENT_http://cs.wikipedia.org/wiki/Diskografie_Genesis-3'
p904
aS'SENT_http://www.greatschools.org/alabama/woodville/-6'
p905
aS'SENT_http://pl.wikipedia.org/wiki/Joe_Satriani-6'
p906
aS'SENT_http://m.milb.com/player/461766/-1'
p907
aS'SENT_http://www.usatoday.com/sports/ncaaf/game/boxscore/l.ncaa.org.mfoot-2010-e.28517/-11'
p908
aS'SENT_http://www.greatschools.org/virginia/forest/-7'
p909
aS'SENT_http://www.financial-gauges.com/2011/01/pg-income-statement-analysis-for.html-0'
p910
aS'SENT_http://www.bluebirdbanter.com/2009/9/17/1035599/best-and-worst-seasons-for-jay-dhs-0'
p911
aS'SENT_http://www.irs.gov/irm/part1/irm_01-004-030.html-5'
p912
aS'SENT_http://www.facesofag.com/Red%20shirts.shtml-1'
p913
aS'SENT_http://www.fao.org/docrep/006/Y4751E/y4751e08.htm-0'
p914
aS'SENT_http://www.holidaylettings.co.uk/rentals/rates/519409-0'
p915
aS'SENT_http://www.greatschools.org/idaho/blackfoot/-6'
p916
aS'SENT_http://www.usa-people-search.com/names/p/Lemuel-Cabrera-Oceanside-CA-3'
p917
aS'SENT_http://www.radioreference.com/apps/db/?fccCallsign=WPFX474-6'
p918
asS'../models/700112_1_300_0_0_0_15_1e-05_10_20_MULTI.doc2vec'
p919
(lp920
S'SENT_http://www.pdga.com/player/33281/stats/2010-1'
p921
aS'SENT_http://canadiens.nhl.com/club/player.htm?id=8471424-3'
p922
aS'SENT_http://collegehockeyinc.com/stats/players14.php?osum11-5'
p923
aS'SENT_http://www.sports-reference.com/olympics/athletes/bu/krzysztof-bujar-1.html-1'
p924
aS'SENT_http://www.goalnepal.com/tournament_details.php?tid=80-41'
p925
aS'SENT_http://www.baseballprospectus.com/prospect_tracker/results.php?org=sea&rankYear=2012&bsort=AB&bsortDir=DESC&psort=RANK&psortDir=ASC-1'
p926
aS'SENT_http://www.childinfo.org/mics/mics3/archives/uzbekistan/survey0/dataSet/dataDictionary/varGroup5/varGroup0.html-0'
p927
aS'SENT_http://www.radioreference.com/apps/db/?fccCallsign=WNWQ404-6'
p928
aS'SENT_http://www.thebaseballcube.com/players/profile.asp?P=Wes-Helms&Page=GameLogs&Y=1998-5'
p929
aS'SENT_http://stats.espnscrum.com/scrum/rugby/records/player/most_tries_match_position.html?id=189;opposition=1;type=decade-17'
p930
aS'SENT_http://www.wunderground.com/cgi-bin/findweather/getForecast?query=zmw:33401.1.99999&hourly=1&yday=100&weekday=Thursday-3'
p931
aS'SENT_http://www.stevegtennis.com/head-to-head/women/Jill_Craybas/Vera_Dushevina/-3'
p932
aS'SENT_http://www.itsalloverfatman.com/broncos/entry/you-got-served-all-tebow-all-the-time-1'
p933
aS'SENT_http://www.thestreet.com/quote/SOFO/details/income-statement.html-1'
p934
aS'SENT_http://www.zoopla.co.uk/property/white-cottage/hopton-bank/hopton-wafers/kidderminster/dy14-0qf/7601810-0'
p935
asS'../models/700112_1_300_1_0_10_15_0_10_5_MULTI.doc2vec'
p936
(lp937
S'SENT_http://www.sports-reference.com/olympics/athletes/kl/karel-klancnik-1.html-1'
p938
aS'SENT_http://es.wikipedia.org/wiki/T%C3%ADtulo_de_Grand_Slam-8'
p939
aS'SENT_http://www.stacksandstacks.com/country-cottage-collection-phone-stand-2'
p940
aS'SENT_http://www.sports-reference.com/olympics/summer/2012/ATH/womens-400-metres-round-one.html-6'
p941
aS'SENT_http://www.iaaf.org/competitions/iaaf-world-youth-championships/5th-iaaf-world-youth-championships-3652/results/men/medley-relay/heats/startlist-2'
p942
aS'SENT_http://www.sports-reference.com/olympics/athletes/sm/susan-smith-walsh-1.html-2'
p943
aS'SENT_http://www.ableammo.com/catalog/browning-high-country-down-jacket-304844-p-129982.html?sort=2d&page=1-47'
p944
aS'SENT_http://www.sports-reference.com/olympics/athletes/ga/nadia-gautschi-1.html-1'
p945
aS'SENT_http://www.sports-reference.com/olympics/athletes/ma/zoltan-magyar-1.html-6'
p946
aS'SENT_http://www.sports-reference.com/olympics/athletes/na/kaltouma-nadjina-1.html-3'
p947
aS'SENT_http://www.monroecounty.gov/mccs/lists/applicant/10597-2'
p948
aS'SENT_http://www.baseball-reference.com/players/r/rodriau01.shtml?sr-8'
p949
aS'SENT_http://careermobilityoffice.cs.ny.gov/announarchive/announcements/24-972.cfm-0'
p950
aS'SENT_http://www.baseball-reference.com/players/h/howarwi01.shtml-6'
p951
aS'SENT_http://www.baseball-reference.com/players/u/unserde01.shtml-9'
p952
asS'../models/700112_1_300_1_0_10_15_0_20_5_SINGLE.doc2vec'
p953
(lp954
S'SENT_http://www.securityguide.com/crime-reports/shreveport-la/-6'
p955
aS'SENT_http://www.digplanet.com/wiki/Tamil_Jain-6'
p956
aS'SENT_http://www.longisland.com/population.html-4'
p957
aS'SENT_http://www.securityguide.com/crime-reports/long-beach-ca/-11'
p958
aS'SENT_http://www.biomedsearch.com/nih/Contralateral-hip-fractures-other-osteoporosis/22526197.html-4'
p959
aS'SENT_http://www.ableammo.com/catalog/browning-high-country-down-jacket-304844-p-129982.html?sort=4a&page=1-47'
p960
aS'SENT_http://websiterecord.com/dm/desiunseen.com-13'
p961
aS'SENT_http://ojp.nationalrail.co.uk/service/ldbboard/dep/CSB-0'
p962
aS'SENT_http://en.wikipedia.org/wiki/List_of_European_tornadoes_in_2011-0'
p963
aS'SENT_http://newint.org/features/1984/05/05/facts/-9'
p964
aS'SENT_http://www.baseball-reference.com/players/f/fergujo01.shtml-8'
p965
aS'SENT_http://www.monroecounty.gov/mccs/lists/applicant/4718-8'
p966
aS'SENT_http://www.fao.org/docrep/meeting/008/j2839e/J2839e00.htm-5'
p967
aS'SENT_http://www.guidetoonlineschools.com/degrees-0'
p968
aS'SENT_http://www.baseball-reference.com/players/h/howarwi01.shtml-6'
p969
asS'../models/700112_1_300_1_1_0_15_0_20_5_MULTI.doc2vec'
p970
(lp971
S'SENT_http://www.fao.org/docrep/006/Y4751E/y4751e08.htm-0'
p972
aS'SENT_http://cricketarchive.com/Archive/Scorecards/258/258619.html-8'
p973
aS'SENT_http://www.gardco.com/pages/viscosity/vi/ford_cups.cfm-27'
p974
aS'SENT_http://www.greatschools.org/wisconsin/fredonia/-6'
p975
aS'SENT_http://www.twstats.co.uk/uk4/index.php?page=player&mode=villages&id=41108-3'
p976
aS'SENT_http://www.sportsbusinessdaily.com/Journal/Issues/1998/06/19980629/This-Weeks-Issue/Going-public.aspx-11'
p977
aS'SENT_http://en.wikipedia.org/wiki/Marvin_Jones_(wide_receiver)-4'
p978
aS'SENT_http://www.soccerway.com/matches/2012/04/04/asia/afc-cup/east-bengal-club-fc/arbil/1232565/head2head/-2'
p979
aS'SENT_http://www.soccerway.com/matches/2013/02/24/world/club-friendlies/fc-nordsjalland/malmo-fotbollsforening/1455001/head2head/-2'
p980
aS'SENT_http://www.soccerway.com/matches/2012/09/26/turkey/cup/istanbulspor-as/kasimpasa-sk/1395530/head2head/-2'
p981
aS'SENT_http://www.atsdr.cdc.gov/HAC/pha/pha.asp?docid=588&pg=4-7'
p982
aS'SENT_http://ballotpedia.org/wiki/index.php/Alaska_state_budget-2'
p983
aS'SENT_http://www.bls.gov/oes/2009/may/oes537011.htm-5'
p984
aS'SENT_http://www.ohsaa.org/events/dates.htm-11'
p985
aS'SENT_http://www.nlm.nih.gov/about/2005CJ.html-13'
p986
asS'../models/700112_1_300_0_0_10_15_1e-05_10_5_MULTI.doc2vec'
p987
(lp988
S'SENT_http://websiterecord.com/dm/atdhe.eu-26'
p989
aS'SENT_http://wetpussygames.com.websitetrafficspy.com/-1'
p990
aS'SENT_http://websiterecord.com/dm/ssega.com-22'
p991
aS'SENT_http://www.ihigh.com/eihss/article_202990.html-3'
p992
aS'SENT_http://www.gametag.com/buyaccounts/Habbo-Hotel-2'
p993
aS'SENT_http://www.cdc.gov/mmwr/preview/mmwrhtml/mm5953a1.htm?s_cid=mm5953a1_x-4'
p994
aS'SENT_http://www.fhwa.dot.gov/Tea21/factsheets/factsht$.htm-6'
p995
aS'SENT_http://www.insurance.ca.gov/0400-news/0200-studies-reports/0300-earthquake-study/1996-2000/1998-summary.cfm-6'
p996
aS'SENT_http://www.samhsa.gov/data/DASIS/06nssats/NSSATS2k6Tbl6.15b.htm-0'
p997
aS'SENT_http://www.abiworld.org/AM/AMTemplate.cfm?Section=Home&CONTENTID=35491&TEMPLATE=/CM/ContentDisplay.cfm-0'
p998
aS'SENT_http://www.watchonlineforfree.co.uk/movies/watch/body-without-soul/-2'
p999
aS'SENT_http://www.watchonlineforfree.co.uk/movies/watch/the-tune/-2'
p1000
aS'SENT_http://www.baseball-reference.com/players/h/herreke01.shtml?mobile=false-8'
p1001
aS'SENT_http://www.baseball-reference.com/players/k/kreevmi01.shtml-9'
p1002
aS'SENT_http://www.baseball-reference.com/players/f/fothebo01.shtml-8'
p1003
asS'../models/700112_1_300_0_1_10_15_1e-05_20_5_SINGLE.doc2vec'
p1004
(lp1005
S'SENT_http://www.ewtn.com/library/CHISTORY/NMBRGROW.HTM-2'
p1006
aS'SENT_http://archive.ahrq.gov/qual/nhdr04/fullreport/Data_Tables/DD_91a.htm-2'
p1007
aS'SENT_http://www.rita.dot.gov/bts/sites/rita.dot.gov.bts/files/publications/the_changing_face_of_transportation/html/table_01_01.html-0'
p1008
aS'SENT_http://www.fao.org/docrep/009/a0699e/A0699E05.htm-5'
p1009
aS'SENT_http://www.gwu.edu/~ibi/minerva/Spring1998/Tarcisio.Godoy/Tarcisio.Godoy.html-8'
p1010
aS'SENT_http://www.cfbstats.com/2012/leader/821/team/defense/split07/category29/sort01.html-0'
p1011
aS'SENT_http://www.fao.org/docrep/006/j2459e/j2459e08.htm-2'
p1012
aS'SENT_http://www.amoeba.com/engravings-forest-swords/albums/2997165/-0'
p1013
aS'SENT_http://www.ukathletics.com/sports/w-soccer/stats/2010-2011/plyr_22.html-2'
p1014
aS'SENT_http://www.cfbstats.com/2013/leader/821/team/defense/split09/category10/sort03.html-0'
p1015
aS'SENT_http://www.fao.org/docrep/006/Y4751E/y4751e08.htm-0'
p1016
ag1009
aS'SENT_http://www.cbssports.com/collegefootball/gametracker/live/NCAAF_20131107_OKLA@BAYLOR-24'
p1017
aS'SENT_http://www.viagogo.co.uk/uncut/Concert-Tickets/Alternative-and-Indie/Foreigner-Tickets-0'
p1018
aS'SENT_http://www.usa-people-search.com/names/p/Lemuel-Cabrera-Oceanside-CA-3'
p1019
asS'../models/700112_1_300_1_1_0_15_1e-05_20_5_MULTI.doc2vec'
p1020
(lp1021
S'SENT_http://www.ci.redding.ca.us/demographics.html-9'
p1022
aS'SENT_http://www.fao.org/docrep/006/Y4751E/y4751e08.htm-0'
p1023
aS'SENT_http://archive.ahrq.gov/qual/nhdr04/fullreport/Data_Tables/DD_23a.htm-2'
p1024
aS'SENT_http://www.rita.dot.gov/bts/sites/rita.dot.gov.bts/files/publications/the_changing_face_of_transportation/html/table_01_01.html-0'
p1025
aS'SENT_http://www.google.com/patents/US7041794?dq=%22robert+sheehan%22-10'
p1026
aS'SENT_http://maps.met.police.uk/access.php?area=E01004295&sort=area&order=d-3'
p1027
aS'SENT_http://maps.met.police.uk/access.php?area=E01003586&sort=area&order=d-3'
p1028
aS'SENT_http://maps.met.police.uk/access.php?area=E01002134&sort=count&order=d-3'
p1029
aS'SENT_http://maps.met.police.uk/access.php?area=E01002107&sort=count&order=d-3'
p1030
aS'SENT_http://maps.met.police.uk/access.php?area=E01002867&sort=area&order=a-3'
p1031
ag1023
aS'SENT_http://www.cga.ct.gov/2009/rpt/2009-R-0383.htm-16'
p1032
aS'SENT_http://www.doe.virginia.gov/news/news_releases/2011/jan25.shtml-1'
p1033
aS'SENT_http://www.top-law-schools.com/wiki/Duke_Law_School-0'
p1034
aS'SENT_http://www.twstats.co.uk/uk4/index.php?page=player&mode=villages&id=41108-3'
p1035
asS'../models/700112_2_100_0_0_0_15_1e-05_10_5_SINGLE.doc2vec'
p1036
(lp1037
S'SENT_http://riyria.blogspot.com/p/contact.html-6'
p1038
aS'SENT_http://cloud-images.ubuntu.com/releases/13.04/beta-2/-0'
p1039
aS'SENT_http://www.weatherbase.com/weather/weatherhourly.php3?s=568961&date=2013-01-31&cityname=Woodworth%2C+Louisiana%2C+United+States+of+America&units=-14'
p1040
aS'SENT_http://www.timeanddate.com/weather/canada/saanich/historic?hd=20140708-0'
p1041
aS'SENT_http://www.limetorrents.com/search/all/Formula1.2013.Monaco.Grand.Prix.Qualifying.720p.HDTV.x264-FAIRPLAY/-0'
p1042
aS'SENT_http://www.wowprogress.com/challenge_score/us/ner-zhul/rating.tier11_25/class.warlock-0'
p1043
aS'SENT_http://fftoday.com/game/2012/wk16_postgame_chi_ari.html-38'
p1044
aS'SENT_http://www.nhl.com/ice/player.htm?id=8476992&view=stats-6'
p1045
aS'SENT_http://stars.nhl.com/club/player.htm?id=8452209-4'
p1046
aS'SENT_http://www.google.com/patents/US8036972?ie=ISO-8859-1-5'
p1047
aS'SENT_http://www.itjobswatch.co.uk/default.aspx?page=3&sortby=6&orderby=0&q=&id=2400&lid=2608-3'
p1048
aS'SENT_http://www.ratebeer.com/user/1867/places/-3'
p1049
aS'SENT_http://money.cnn.com/quote/shareholders/shareholders.html?symb=STX&exHours=off-2'
p1050
aS'SENT_http://stats.espncricinfo.com/ci/engine/ground/59545.html?class=3;filter=advanced;orderby=fow_score;partnership_wicketmax1=1;partnership_wicketval1=partnership_wicket;team=7;template=results;type=aggregate;view=innings-49'
p1051
aS'SENT_http://money.cnn.com/quote/shareholders/shareholders.html?symb=ICE&subView=insider-3'
p1052
asS'../models/700112_1_300_1_1_10_15_1e-05_10_5_SINGLE.doc2vec'
p1053
(lp1054
S'SENT_http://www.rita.dot.gov/bts/sites/rita.dot.gov.bts/files/publications/the_changing_face_of_transportation/html/table_01_01.html-0'
p1055
aS'SENT_http://www.greatschools.org/alabama/woodville/-6'
p1056
aS'SENT_http://cs.wikipedia.org/wiki/Diskografie_Genesis-3'
p1057
aS'SENT_http://pl.wikipedia.org/wiki/Joe_Satriani-6'
p1058
aS'SENT_http://simple.wikipedia.org/wiki/Almens-1'
p1059
aS'SENT_http://www.ohiostatebuckeyes.com/graphics/pdf/m-footbl/2013/4famu.htm-11'
p1060
aS'SENT_http://www.ohiostatebuckeyes.com/stats/mbasketball/2010-11/teamcume.htm-43'
p1061
aS'SENT_http://www.fsubroncos.com/sports/m-footbl/stats/2011-2012/sacfsu.html-13'
p1062
aS'SENT_http://www.smumustangs.com/sports/m-footbl/stats/2011-2012/bbva2012.html-13'
p1063
aS'SENT_http://www.arizonawildcats.com/ViewContent.dbml?CONTENT_ID=814133&DB_OEM_ID=30700-12'
p1064
aS'SENT_http://www.fao.org/docrep/006/Y4751E/y4751e08.htm-0'
p1065
aS'SENT_http://www.cricketarchive.com/Archive/Scorecards/154/154946.html-4'
p1066
aS'SENT_http://www.usa-people-search.com/names/p/Lemuel-Cabrera-Oceanside-CA-3'
p1067
aS'SENT_http://www.cbssports.com/collegefootball/gametracker/live/NCAAF_20131107_OKLA@BAYLOR-24'
p1068
aS'SENT_http://www.greatschools.org/idaho/blackfoot/-6'
p1069
asS'../models/700112_1_300_1_0_10_15_0_10_20_SINGLE.doc2vec'
p1070
(lp1071
S'SENT_http://www.cato.org/publications/commentary/free-markets-flower-war-memories-fade-0'
p1072
aS'SENT_http://www.dewsburyroadrunners.co.uk/cgi/profile.php?index=80173-12'
p1073
aS'SENT_http://banglacricket.com/html/features/article.php?item=411-5'
p1074
aS'SENT_http://www.angelfire.com/ak/EgyptianSports/AfricanCup98.html-2'
p1075
aS'SENT_http://websiterecord.com/dm/igraemsa.ru-19'
p1076
aS'SENT_http://www.bu.edu/isso/about/statistics/student/2011/country.html-7'
p1077
aS'SENT_http://marxists.org/archive/cliff/works/1948/stalruss/ch03.htm-1'
p1078
aS'SENT_http://www.cdc.gov/nchs/data/nvsr/nvsr57/nvsr57_03.htm-4'
p1079
aS'SENT_http://www.fool.com/investing/general/2013/01/14/who-gains-from-lng-exportation.aspx-0'
p1080
aS'SENT_http://www.state.gov/e/eb/rls/othr/ics/2011/157348.htm-1'
p1081
aS'SENT_http://www.baseball-reference.com/players/l/lezcasi01.shtml-8'
p1082
aS'SENT_http://www.fao.org/docrep/meeting/008/j2839e/J2839e00.htm-5'
p1083
aS'SENT_http://www.baseball-reference.com/players/c/cedence01.shtml-9'
p1084
aS'SENT_http://www.baseball-reference.com/players/o/otisam01.shtml-9'
p1085
aS'SENT_http://www.wright.edu/administration/aaup/cba-nte-nego/art26.html-5'
p1086
asS'../models/700112_2_300_0_1_10_15_0_10_20_SINGLE.doc2vec'
p1087
(lp1088
S'SENT_http://republicoftogo.com.websitetrafficspy.com/-1'
p1089
aS'SENT_http://urlm.co.uk/www.btjunkie.org-3'
p1090
aS'SENT_http://www.twstats.com/en26/index.php?page=rankings&mode=villages-1'
p1091
aS'SENT_http://archive.unu.edu/unupress/unupbooks/uu02fe/uu02fe0b.htm-4'
p1092
aS'SENT_http://www.ewtn.com/library/CHRIST/Z97STATS.HTM-6'
p1093
aS'SENT_http://clinicaltrials.gov/ct2/show/results/NCT00478556-7'
p1094
aS'SENT_http://www.clinicaltrials.gov/ct2/show/results/NCT00284180-7'
p1095
aS'SENT_http://clinicaltrials.gov/ct2/show/results/NCT00477204-7'
p1096
aS'SENT_http://clinicaltrials.gov/ct2/show/results/NCT00768430-8'
p1097
aS'SENT_http://www.state.gov/s/d/rm/rls/perfrpt/2002/html/19093.htm-5'
p1098
aS'SENT_http://www.jobs-salary.com/exxon-mobil-senior-specialist-salary.htm-2'
p1099
ag1091
aS'SENT_http://www.jobs-salary.com/terrace-park-salary-oh.htm-2'
p1100
aS'SENT_http://www.jobs-salary.com/texas-senior-exploration-geophysicist-salary.htm-2'
p1101
aS'SENT_http://www.jobs-salary.com/yahoo-salary.htm-2'
p1102
asS'../models/700112_1_300_0_1_10_15_1e-05_20_20_MULTI.doc2vec'
p1103
(lp1104
S'SENT_http://meps.ahrq.gov/mepsweb/data_files/publications/rf19/rf19.shtml-23'
p1105
aS'SENT_http://meps.ahrq.gov/mepsweb/data_files/publications/rf1/rf1.shtml-7'
p1106
aS'SENT_http://www.twstats.co.uk/uk4/index.php?page=player&mode=villages&id=41108-3'
p1107
aS'SENT_http://www.fao.org/docrep/003/w9634e/W9634e03.htm-0'
p1108
aS'SENT_http://www.fao.org/docrep/006/Y4751E/y4751e08.htm-0'
p1109
aS'SENT_http://www.timeanddate.com/weather/canada/campbell-river/historic?hd=20131124-0'
p1110
aS'SENT_http://www.sports-reference.com/cbb/players/branden-frazier-1.html-3'
p1111
aS'SENT_http://www.coldwellbanker.com/agent?action=detail&agentId=17354&mode=neighborhood&nid=4338365-0'
p1112
aS'SENT_http://www.sports-reference.com/cbb/players/avery-dingman-1.html-3'
p1113
aS'SENT_http://www.coldwellbanker.com/agent?action=detail&agentId=30900&mode=neighborhood&nid=4335867-0'
p1114
ag1108
aS'SENT_http://www.arrl.org/results-database?event_id=45021&ofst=1475&ofst=1425-0'
p1115
aS'SENT_http://www.arrl.org/results-database?event_id=34455&ofst=75&ofst=975-0'
p1116
ag1109
aS'SENT_http://www.fao.org/docrep/009/a0699e/A0699E05.htm-5'
p1117
asS'../models/700112_1_300_0_0_10_15_0_10_20_MULTI.doc2vec'
p1118
(lp1119
S'SENT_http://www.energy.vt.edu/vept/coal/trans_cost_sector.asp-3'
p1120
aS'SENT_http://www.siteadvisor.com/studies/map_malweb_mar2007.html-12'
p1121
aS'SENT_http://www.siteadvisor.com/studies/map_malweb_mar2007.html-6'
p1122
aS'SENT_http://www.londonstockexchange.com/exchange/prices-and-markets/stocks/summary/company-summary.html?fourWayKey=GB00B18S7B29GBGBXAIM-5'
p1123
aS'SENT_http://www.ous.edu/sites/default/files/dept/ir/reports/fact_book_2000/edsource.htm-0'
p1124
aS'SENT_http://www.sports-reference.com/olympics/athletes/no/mats-nordlander-1.html-1'
p1125
aS'SENT_http://www.sports-reference.com/olympics/athletes/st/britt-strandberg-1.html-3'
p1126
aS'SENT_http://www.sports-reference.com/olympics/athletes/fe/steven-ferguson-1.html-1'
p1127
aS'SENT_http://www.sports-reference.com/olympics/athletes/po/jutta-poikolainen-1.html-1'
p1128
aS'SENT_http://www.sports-reference.com/olympics/athletes/be/stefania-belmondo-1.html-2'
p1129
aS'SENT_http://flightaware.com/live/flight/SKW5640/history/20130511/1105Z/KDFW/KSFO/times-2'
p1130
aS'SENT_http://www.cfbstats.com/2009/player/754/1026972/passing/gamelog.html-0'
p1131
aS'SENT_http://flightaware.com/live/flight/UAL4498/history/20131001/1911Z/KSDF/KORD/times-2'
p1132
aS'SENT_http://www.anaren.com/products/mixers-double-balanced-0'
p1133
aS'SENT_http://bt.etree.org/details.php?id=560947&dllist=1-6'
p1134
asS'../models/700112_1_300_1_1_10_15_1e-05_10_20_SINGLE.doc2vec'
p1135
(lp1136
S'SENT_http://www.ci.redding.ca.us/demographics.html-9'
p1137
aS'SENT_http://www.mass.gov/bb/h1/fy12h1/prnt_12/exec_12/pbudbrief1.htm-0'
p1138
aS'SENT_http://simple.wikipedia.org/wiki/Almens-1'
p1139
aS'SENT_http://www.longisland.com/population.html-4'
p1140
aS'SENT_http://www.thebaseballcube.com/history/boxscore.asp?GID=CHN199209150-7'
p1141
aS'SENT_http://www.bringonthecats.com/2014/2/22/5437418/sochi-2014-winter-olympics-day-16-recap-final-day-schedule-how-to-watch-and-more-0'
p1142
aS'SENT_http://www.morningstar.com/invest/filings/279202-xtsx-atx-argentex-mining-corp-annual-report-20-f-filing-1-31-2012.html-36'
p1143
aS'SENT_http://www.anaheimcalling.com/2013/5/16/4334558/anaheim-calling-staff-playoff-preview-conference-semifinals-2'
p1144
aS'SENT_http://www.soccerway.com/matches/2013/04/07/romania/liga-i/sc-fc-steaua-bucuresti-sa/acs-mu-politehnica-iai---tricolorul-breaza/1292345/head2head/-7'
p1145
aS'SENT_http://www.wikinvest.com/stock/AFLAC_(AFL)/Filing/10-K/2010/F46739162-87'
p1146
aS'SENT_http://webindetail.com/ws/ppshk.com-0'
p1147
aS'SENT_http://www.pro-football-reference.com/coaches/KromAa0.htm-3'
p1148
aS'SENT_http://www.pro-football-reference.com/coaches/StudEr0.htm-3'
p1149
aS'SENT_http://www.pro-football-reference.com/coaches/TomsJi0.htm-3'
p1150
aS'SENT_http://www.twstats.com/en26/index.php?page=rankings&mode=villages-1'
p1151
asS'../models/700112_1_300_1_1_0_15_0_10_20_SINGLE.doc2vec'
p1152
(lp1153
S'SENT_http://republicoftogo.com.websitetrafficspy.com/-1'
p1154
aS'SENT_http://webindetail.com/ws/ppshk.com-0'
p1155
aS'SENT_http://en.wikipedia.org/wiki/Pembury-1'
p1156
aS'SENT_http://m.pfref.com/m?p=XXboxscoresXX200609240det.htm-1'
p1157
aS'SENT_http://www.fao.org/docrep/006/Y4751E/y4751e08.htm-0'
p1158
aS'SENT_http://www.soccerway.com/matches/2011/03/16/san-marino/coppa-titano/ss-virtus/ss-folgore-falciano/1025970/head2head/-11'
p1159
aS'SENT_http://clinicaltrials.gov/ct2/show/results/NCT01294462-7'
p1160
aS'SENT_http://www.bloodhorse.com/auctions-tool/hip-search/horse?Column=Name&Direction=Ascending&horseid=7562&horsename=Street%20Cry%20(IRE)&horsesearchtype=Sire-3'
p1161
aS'SENT_http://www.bloodhorse.com/auctions-tool/hip-search/horse?horseId=6717&horseSearchType=Sire&horseName=Toccet&direction=Ascending-3'
p1162
aS'SENT_http://www.clinicaltrials.gov/ct2/show/results/NCT00912028-7'
p1163
aS'SENT_http://www.proremodeler.com/growth-market-9'
p1164
aS'SENT_http://www.radioreference.com/apps/db/?fccCallsign=WPJR742-6'
p1165
aS'SENT_http://www.jobs-salary.com/liquidity-jobs.htm-1'
p1166
aS'SENT_http://www.nco.ncep.noaa.gov/pmb/nwprod/prodstat_new/prdst_06_UTC_NAM.html-0'
p1167
aS'SENT_http://www.jobs-salary.com/morgan-stanley-investment-mgmt-salary.htm-2'
p1168
asS'../models/700112_1_300_1_1_10_15_0_20_5_MULTI.doc2vec'
p1169
(lp1170
S'SENT_http://www.digplanet.com/wiki/Tamil_Jain-6'
p1171
aS'SENT_http://www.turfparts.com/replacement_parts_bars_chain_saw_chain_husqvarna.htm-6'
p1172
aS'SENT_http://www.turfparts.com/replacement_parts_bars_chain_saw_chain_john_deere.htm-7'
p1173
aS'SENT_http://www.pwsweather.com/obs/archive/2012/04/23/N3SME.html-1'
p1174
aS'SENT_http://www.sports-reference.com/cbb/players/yasin-kolo-1.html-3'
p1175
aS'SENT_http://www.mongabay.com/deforestation_rate_tables.htm-18'
p1176
aS'SENT_http://www.bringonthecats.com/2014/2/22/5437418/sochi-2014-winter-olympics-day-16-recap-final-day-schedule-how-to-watch-and-more-0'
p1177
aS'SENT_http://www.wikinvest.com/stock/STATOIL_ASA_(STO)/Filing/20-F/2012/F100957641-29'
p1178
aS'SENT_http://valueoverreplacementgrit.com/2012/12/07/ron-blomberg-and-sabbathmetrics/-0'
p1179
aS'SENT_http://www.casperplatoon.com/AgentOrange.htm-3'
p1180
aS'SENT_http://www.exceldiamonds.com/Diamonds-1/?Stone-Shape=Cushion-Diamond-F7384&Diamond-Symmetry=Fair-F7479&noidx=1-1'
p1181
aS'SENT_http://neic.usgs.gov/neis/bulletin/neic_laan_t.html-0'
p1182
aS'SENT_http://neic.usgs.gov/neis/recent/nc71996906_t.html-0'
p1183
aS'SENT_http://earthquake.usgs.gov/earthquakes/eqarchives/year/2004/2004_01_07_tt.php-0'
p1184
aS'SENT_http://autos.msn.com/research/compare/default.aspx?mode=trims&modelid=9698&ref=vip-2'
p1185
asS'../models/700112_1_300_0_0_10_15_0_20_5_MULTI.doc2vec'
p1186
(lp1187
S'SENT_http://www.wunderground.com/history/airport/KGZH/2013/02/03/DailyHistory.html-4'
p1188
aS'SENT_http://www.wunderground.com/cgi-bin/findweather/getForecast?hourly=1&query=33435&yday=73&weekday=Friday&sp=KFLBOYNT18-3'
p1189
aS'SENT_http://www.wunderground.com/history/airport/KPBI/2013/5/19/DailyHistory.html-4'
p1190
aS'SENT_http://www.lib.uchicago.edu/e/phd/deadlines.html-1'
p1191
aS'SENT_http://www.elac.edu/schedules/Spring2014_newClasses01_28_14.htm-14'
p1192
aS'SENT_http://www.sports-reference.com/olympics/athletes/th/sugath-thilakaratne-1.html-2'
p1193
aS'SENT_http://www.sports-reference.com/olympics/athletes/pr/aldo-pruna-1.html-1'
p1194
aS'SENT_http://www.sports-reference.com/olympics/athletes/le/yury-leontyev-1.html-1'
p1195
aS'SENT_http://www.sports-reference.com/olympics/athletes/ga/nadia-gautschi-1.html-1'
p1196
aS'SENT_http://www.sports-reference.com/olympics/athletes/mo/edivaldo-monteiro-1.html-2'
p1197
aS'SENT_http://www.holidaylettings.co.uk/rentals/rates/155271-0'
p1198
aS'SENT_http://www.monroecounty.gov/mccs/lists/applicant/8534-4'
p1199
aS'SENT_http://www.google.co.uk/patents/US5488372?ie=ISO-8859-1-9'
p1200
aS'SENT_http://www.holidaylettings.co.uk/rentals/rates/325211-0'
p1201
aS'SENT_http://www.americanmotorcyclist.com/asp/raceresults/racerevents.asp?r=9741&s=47&cls=136&year=2009-1'
p1202
asS'../models/700112_1_300_0_0_0_15_0_20_20_SINGLE.doc2vec'
p1203
(lp1204
S'SENT_http://www.pdga.com/player/33281/stats/2010-1'
p1205
aS'SENT_http://canadiens.nhl.com/club/player.htm?id=8471424-3'
p1206
aS'SENT_http://collegehockeyinc.com/stats/players14.php?osum11-5'
p1207
aS'SENT_http://www.sports-reference.com/olympics/athletes/bu/krzysztof-bujar-1.html-1'
p1208
aS'SENT_http://www.goalnepal.com/tournament_details.php?tid=80-41'
p1209
aS'SENT_http://www.baseballprospectus.com/prospect_tracker/results.php?org=sea&rankYear=2012&bsort=AB&bsortDir=DESC&psort=RANK&psortDir=ASC-1'
p1210
aS'SENT_http://www.childinfo.org/mics/mics3/archives/uzbekistan/survey0/dataSet/dataDictionary/varGroup5/varGroup0.html-0'
p1211
aS'SENT_http://www.radioreference.com/apps/db/?fccCallsign=WNWQ404-6'
p1212
aS'SENT_http://www.thebaseballcube.com/players/profile.asp?P=Wes-Helms&Page=GameLogs&Y=1998-5'
p1213
aS'SENT_http://stats.espnscrum.com/scrum/rugby/records/player/most_tries_match_position.html?id=189;opposition=1;type=decade-17'
p1214
aS'SENT_http://www.wunderground.com/cgi-bin/findweather/getForecast?query=zmw:33401.1.99999&hourly=1&yday=100&weekday=Thursday-3'
p1215
aS'SENT_http://www.stevegtennis.com/head-to-head/women/Jill_Craybas/Vera_Dushevina/-3'
p1216
aS'SENT_http://www.itsalloverfatman.com/broncos/entry/you-got-served-all-tebow-all-the-time-1'
p1217
aS'SENT_http://www.thestreet.com/quote/SOFO/details/income-statement.html-1'
p1218
aS'SENT_http://www.zoopla.co.uk/property/white-cottage/hopton-bank/hopton-wafers/kidderminster/dy14-0qf/7601810-0'
p1219
asS'../models/700112_1_300_1_1_10_15_0_10_20_MULTI.doc2vec'
p1220
(lp1221
S'SENT_http://www.dewsburyroadrunners.co.uk/cgi/profile.php?index=80173-12'
p1222
aS'SENT_http://www.twstats.com/en26/index.php?page=rankings&mode=villages-1'
p1223
aS'SENT_http://www.freep.com/article/20120813/SPORTS17/308130076-0'
p1224
aS'SENT_http://www.twstats.co.uk/uk4/index.php?page=player&mode=villages&id=41108-3'
p1225
aS'SENT_http://www.google.com/patents/US20110320385?ie=ISO-8859-1-10'
p1226
aS'SENT_http://zcomm.org/znetarticle/testing-the-propaganda-model-by-kevin-young/-0'
p1227
aS'SENT_http://www.fao.org/docrep/009/y5852e/Y5852E07.htm-2'
p1228
aS'SENT_http://blekko.com/wiki/Ndamukong_Suh?source=672620ff-9'
p1229
aS'SENT_http://en.wikipedia.org/wiki/David_Ayre-1'
p1230
aS'SENT_http://de.wikipedia.org/wiki/Panamerikanische_Spiele_1995-0'
p1231
ag1225
aS'SENT_http://thenumbers.marketplace.org/publicradio/action/getedgarwindow?accesscode=113501704000003-67'
p1232
aS'SENT_http://www.clrsearch.com/Nikiski-Demographics/AK/-32'
p1233
aS'SENT_http://www.clrsearch.com/Davenport-Demographics/FL/-12'
p1234
aS'SENT_http://www.everyaptmapped.org/apartments/riverdale,georgia,ga/poplar+pointe.html-0'
p1235
asS'../models/700112_1_300_0_0_0_15_0_20_5_MULTI.doc2vec'
p1236
(lp1237
S'SENT_http://www.pdga.com/player/33281/stats/2010-1'
p1238
aS'SENT_http://canadiens.nhl.com/club/player.htm?id=8471424-3'
p1239
aS'SENT_http://collegehockeyinc.com/stats/players14.php?osum11-5'
p1240
aS'SENT_http://www.sports-reference.com/olympics/athletes/bu/krzysztof-bujar-1.html-1'
p1241
aS'SENT_http://www.goalnepal.com/tournament_details.php?tid=80-41'
p1242
aS'SENT_http://www.baseballprospectus.com/prospect_tracker/results.php?org=sea&rankYear=2012&bsort=AB&bsortDir=DESC&psort=RANK&psortDir=ASC-1'
p1243
aS'SENT_http://www.childinfo.org/mics/mics3/archives/uzbekistan/survey0/dataSet/dataDictionary/varGroup5/varGroup0.html-0'
p1244
aS'SENT_http://www.radioreference.com/apps/db/?fccCallsign=WNWQ404-6'
p1245
aS'SENT_http://www.thebaseballcube.com/players/profile.asp?P=Wes-Helms&Page=GameLogs&Y=1998-5'
p1246
aS'SENT_http://stats.espnscrum.com/scrum/rugby/records/player/most_tries_match_position.html?id=189;opposition=1;type=decade-17'
p1247
aS'SENT_http://www.wunderground.com/cgi-bin/findweather/getForecast?query=zmw:33401.1.99999&hourly=1&yday=100&weekday=Thursday-3'
p1248
aS'SENT_http://www.stevegtennis.com/head-to-head/women/Jill_Craybas/Vera_Dushevina/-3'
p1249
aS'SENT_http://www.itsalloverfatman.com/broncos/entry/you-got-served-all-tebow-all-the-time-1'
p1250
aS'SENT_http://www.thestreet.com/quote/SOFO/details/income-statement.html-1'
p1251
aS'SENT_http://www.zoopla.co.uk/property/white-cottage/hopton-bank/hopton-wafers/kidderminster/dy14-0qf/7601810-0'
p1252
asS'../models/700112_1_300_0_1_10_15_0_10_5_SINGLE.doc2vec'
p1253
(lp1254
S'SENT_http://simple.wikipedia.org/wiki/List_of_countries_by_GDP_(PPP)-2'
p1255
aS'SENT_http://www.ci.redding.ca.us/demographics.html-9'
p1256
aS'SENT_http://www.census.gov/library/working-papers/2001/demo/POP-twps0063.html-6'
p1257
aS'SENT_http://www.mdpi.com/2223-7747/2/2/203/xml-2'
p1258
aS'SENT_http://www.swfinstitute.org/tag/macroeconomics/-0'
p1259
aS'SENT_http://www.bringonthecats.com/2014/2/23/5439806/sochi-olympics-2014-day-17-recap-and-the-final-analysis-19'
p1260
aS'SENT_http://www.fao.org/docrep/006/ad672e/ad672e01.htm-1'
p1261
aS'SENT_http://www.bringonthecats.com/2014/2/22/5437418/sochi-2014-winter-olympics-day-16-recap-final-day-schedule-how-to-watch-and-more-0'
p1262
aS'SENT_http://www.hindawi.com/journals/jobe/2013/140743/tab1/-1'
p1263
aS'SENT_http://www.fao.org/docrep/007/v8330e/V8330E09.htm-6'
p1264
aS'SENT_http://www.sec.gov/Archives/edgar/data/1310313/000118811212000048/t72288_10ka.htm-12'
p1265
aS'SENT_http://www.monroecounty.gov/mccs/lists/applicant/25313-1'
p1266
aS'SENT_http://www.baseball-reference.com/players/h/hudsoor01.shtml?sr-8'
p1267
aS'SENT_http://www.baseball-reference.com/players/m/motagu01.shtml-10'
p1268
aS'SENT_http://www.baseball-reference.com/players/k/kennead01.shtml-8'
p1269
asS'../models/700112_1_300_1_0_10_15_0_10_5_SINGLE.doc2vec'
p1270
(lp1271
S'SENT_http://www.sipri.org/yearbook/2013/06-0'
p1272
aS'SENT_http://marxists.org/archive/cliff/works/1948/stalruss/ch03.htm-1'
p1273
aS'SENT_http://www.bu.edu/isso/about/statistics/student/2011/country.html-7'
p1274
aS'SENT_http://www.unep.org/dewa/Africa/publications/AEO-2/content/207.htm-2'
p1275
aS'SENT_http://www.digplanet.com/wiki/Tamil_Jain-6'
p1276
aS'SENT_http://maps.met.police.uk/access.php?area=E01004295&sort=area&order=d-3'
p1277
aS'SENT_http://maps.met.police.uk/access.php?area=E01003429&sort=area&order=a-3'
p1278
aS'SENT_http://www.unrwa.org/newsroom/emergency-reports/unrwa-syria-crisis-situation-update-issue-31-2'
p1279
aS'SENT_http://maps.met.police.uk/access.php?area=E01003420&sort=rate-3'
p1280
aS'SENT_http://maps.met.police.uk/access.php?area=E01002107&sort=count&order=d-3'
p1281
aS'SENT_http://www.jobs-salary.com/equator-technologies-jobs.htm-2'
p1282
aS'SENT_http://www.monroecounty.gov/mccs/lists/applicant/10451-1'
p1283
aS'SENT_http://www.monroecounty.gov/mccs/lists/applicant/10597-2'
p1284
aS'SENT_http://www.baseball-reference.com/players/l/lezcasi01.shtml-8'
p1285
aS'SENT_http://www.sports-reference.com/olympics/athletes/la/kirsten-lawton-1.html-1'
p1286
asS'../models/700112_2_300_0_1_10_15_1e-05_10_20_SINGLE.doc2vec'
p1287
(lp1288
S'SENT_http://www.google.com/patents/US7041794?dq=%22robert+sheehan%22-10'
p1289
aS'SENT_http://www.rita.dot.gov/bts/sites/rita.dot.gov.bts/files/publications/the_changing_face_of_transportation/html/table_01_01.html-0'
p1290
aS'SENT_http://www.ci.redding.ca.us/demographics.html-9'
p1291
aS'SENT_http://www.nfa.futures.org/NFA-regulation/newsProposedRule.asp?ArticleID=1428-7'
p1292
aS'SENT_http://archive.ahrq.gov/qual/nhdr04/fullreport/Data_Tables/DD_23a.htm-2'
p1293
aS'SENT_http://clinicaltrials.gov/ct2/show/results/NCT00107952-7'
p1294
aS'SENT_http://clinicaltrials.gov/ct2/show/results/NCT00433836-7'
p1295
aS'SENT_http://clinicaltrials.gov/ct2/show/results/NCT01087957-7'
p1296
aS'SENT_http://www.clinicaltrials.gov/ct2/show/results/NCT00926367-7'
p1297
aS'SENT_http://www.clinicaltrials.gov/ct2/show/results/NCT00984568-7'
p1298
aS'SENT_http://www.twstats.com/en26/index.php?page=rankings&mode=villages-1'
p1299
aS'SENT_http://www.stat-togo.org/index.php?option=com_content&view=category&layout=blog&id=43&Itemid=96-3'
p1300
aS'SENT_http://www.pro-football-reference.com/coaches/BateJi0.htm-3'
p1301
aS'SENT_http://www.pro-football-reference.com/coaches/StudEr0.htm-3'
p1302
aS'SENT_http://www.pro-football-reference.com/coaches/DitkMi0.htm-3'
p1303
asS'../models/700112_2_300_0_1_10_15_0_10_5_SINGLE.doc2vec'
p1304
(lp1305
S'SENT_http://www.digplanet.com/wiki/English-speaking_world-4'
p1306
aS'SENT_http://schools-wikipedia.org/wp/e/English_language.htm-2'
p1307
aS'SENT_http://unstats.un.org/unsd/methods/icp/gdp/gdp02_htm.htm-7'
p1308
aS'SENT_http://websiterecord.com/dm/foxdrama.com-28'
p1309
aS'SENT_http://www.pakistaneconomist.com/issue2002/issue4/f&m4.htm-3'
p1310
aS'SENT_http://www.soccerway.com/matches/2013/05/12/ecuador/primera-a/club-social-y-deportivo-macara/barcelona-sporting-club-guayaquil/1469828/head2head/-2'
p1311
aS'SENT_http://www.soccerway.com/matches/2013/08/24/germany/regionalliga/sv-werder-bremen-ii/eintracht-braunschweig-ii/1497928/head2head/-2'
p1312
aS'SENT_http://www.soccerway.com/matches/2012/11/08/europe/uefa-cup/ss-lazio-roma/panathinaikos-fc/1388953/head2head/-2'
p1313
aS'SENT_http://www.soccerway.com/matches/2012/11/25/france/cfa/as-nancy-lorraine-ii/grenoble-foot-38/1334793/head2head/-2'
p1314
aS'SENT_http://en.wikipedia.org/wiki/Nam_Trung_B%e1%bb%99-0'
p1315
aS'SENT_http://www.jobs-salary.com/drugstore-salary.htm-2'
p1316
aS'SENT_http://www.fao.org/docrep/006/Y4751E/y4751e08.htm-0'
p1317
aS'SENT_http://www.arrl.org/results-database?event_id=22228&ofst=1975&ofst=2100-0'
p1318
aS'SENT_http://www.arrl.org/results-database?event_id=34456&ofst=2725&ofst=2600-0'
p1319
aS'SENT_http://www.arrl.org/results-database?event_id=13652&ofst=775-0'
p1320
asS'../models/700112_1_300_1_0_0_15_1e-05_20_20_SINGLE.doc2vec'
p1321
(lp1322
S'SENT_http://www.pdga.com/player/33281/stats/2010-1'
p1323
aS'SENT_http://canadiens.nhl.com/club/player.htm?id=8471424-3'
p1324
aS'SENT_http://collegehockeyinc.com/stats/players14.php?osum11-5'
p1325
aS'SENT_http://www.sports-reference.com/olympics/athletes/bu/krzysztof-bujar-1.html-1'
p1326
aS'SENT_http://www.goalnepal.com/tournament_details.php?tid=80-41'
p1327
aS'SENT_http://www.baseballprospectus.com/prospect_tracker/results.php?org=sea&rankYear=2012&bsort=AB&bsortDir=DESC&psort=RANK&psortDir=ASC-1'
p1328
aS'SENT_http://www.childinfo.org/mics/mics3/archives/uzbekistan/survey0/dataSet/dataDictionary/varGroup5/varGroup0.html-0'
p1329
aS'SENT_http://www.radioreference.com/apps/db/?fccCallsign=WNWQ404-6'
p1330
aS'SENT_http://www.thebaseballcube.com/players/profile.asp?P=Wes-Helms&Page=GameLogs&Y=1998-5'
p1331
aS'SENT_http://stats.espnscrum.com/scrum/rugby/records/player/most_tries_match_position.html?id=189;opposition=1;type=decade-17'
p1332
aS'SENT_http://www.wunderground.com/cgi-bin/findweather/getForecast?query=zmw:33401.1.99999&hourly=1&yday=100&weekday=Thursday-3'
p1333
aS'SENT_http://www.stevegtennis.com/head-to-head/women/Jill_Craybas/Vera_Dushevina/-3'
p1334
aS'SENT_http://www.itsalloverfatman.com/broncos/entry/you-got-served-all-tebow-all-the-time-1'
p1335
aS'SENT_http://www.thestreet.com/quote/SOFO/details/income-statement.html-1'
p1336
aS'SENT_http://www.zoopla.co.uk/property/white-cottage/hopton-bank/hopton-wafers/kidderminster/dy14-0qf/7601810-0'
p1337
asS'../models/700112_1_300_0_0_0_15_0_10_5_MULTI.doc2vec'
p1338
(lp1339
S'SENT_http://www.pdga.com/player/33281/stats/2010-1'
p1340
aS'SENT_http://canadiens.nhl.com/club/player.htm?id=8471424-3'
p1341
aS'SENT_http://collegehockeyinc.com/stats/players14.php?osum11-5'
p1342
aS'SENT_http://www.sports-reference.com/olympics/athletes/bu/krzysztof-bujar-1.html-1'
p1343
aS'SENT_http://www.goalnepal.com/tournament_details.php?tid=80-41'
p1344
aS'SENT_http://www.baseballprospectus.com/prospect_tracker/results.php?org=sea&rankYear=2012&bsort=AB&bsortDir=DESC&psort=RANK&psortDir=ASC-1'
p1345
aS'SENT_http://www.childinfo.org/mics/mics3/archives/uzbekistan/survey0/dataSet/dataDictionary/varGroup5/varGroup0.html-0'
p1346
aS'SENT_http://www.radioreference.com/apps/db/?fccCallsign=WNWQ404-6'
p1347
aS'SENT_http://www.thebaseballcube.com/players/profile.asp?P=Wes-Helms&Page=GameLogs&Y=1998-5'
p1348
aS'SENT_http://stats.espnscrum.com/scrum/rugby/records/player/most_tries_match_position.html?id=189;opposition=1;type=decade-17'
p1349
aS'SENT_http://www.wunderground.com/cgi-bin/findweather/getForecast?query=zmw:33401.1.99999&hourly=1&yday=100&weekday=Thursday-3'
p1350
aS'SENT_http://www.stevegtennis.com/head-to-head/women/Jill_Craybas/Vera_Dushevina/-3'
p1351
aS'SENT_http://www.itsalloverfatman.com/broncos/entry/you-got-served-all-tebow-all-the-time-1'
p1352
aS'SENT_http://www.thestreet.com/quote/SOFO/details/income-statement.html-1'
p1353
aS'SENT_http://www.zoopla.co.uk/property/white-cottage/hopton-bank/hopton-wafers/kidderminster/dy14-0qf/7601810-0'
p1354
asS'../models/700112_1_300_0_0_10_15_1e-05_20_5_MULTI.doc2vec'
p1355
(lp1356
S'SENT_http://www.ihigh.com/eihss/article_202990.html-3'
p1357
aS'SENT_http://www.prnewswire.com/news-releases/makhteshim-agan-announces-strong-results-for-the-fourth-quarter-and-full-year-2012-196734581.html-1'
p1358
aS'SENT_http://www.fool.com/how-to-invest/personal-finance/home/2011/05/12/should-you-rent-or-buy.aspx-0'
p1359
aS'SENT_http://www.icis.com/Articles/2012/10/12/9603651/us-august-lldpe-exports-rise-by-15-year-on-year.html-0'
p1360
aS'SENT_http://www.thestreet.com/story/10413240/1/this-etf-is-a-bric-house.html-1'
p1361
aS'SENT_http://www.bls.gov/oes/2009/may/oes351012.htm-5'
p1362
aS'SENT_http://www.bassmaster.com/tournaments/maryland-top-100-pro-1-1'
p1363
aS'SENT_http://www.zoopla.co.uk/market/huddersfield/-0'
p1364
aS'SENT_http://www.cpa.state.tx.us/taxinfo/proptax/pvs11f/1751099051L.html-3'
p1365
aS'SENT_http://www.zoopla.co.uk/property/37-bell-road/cosham/portsmouth/po6-3nx/18702312-0'
p1366
aS'SENT_http://www.cfbstats.com/2012/leader/24312/team/defense/split08/category10/sort02.html-0'
p1367
aS'SENT_http://www.cfbstats.com/2012/leader/911/team/offense/split22/category10/sort01.html-0'
p1368
aS'SENT_http://stats.nhlnumbers.com/player_stats/99-getzlaf-ryan-1'
p1369
aS'SENT_http://www.cfbstats.com/2012/leader/911/team/defense/split01/category29/sort03.html-0'
p1370
aS'SENT_http://www.cfbstats.com/2012/leader/905/team/offense/split02/category10/sort06.html-0'
p1371
asS'../models/700112_1_300_1_1_10_15_1e-05_10_20_MULTI.doc2vec'
p1372
(lp1373
S'SENT_http://www.rita.dot.gov/bts/sites/rita.dot.gov.bts/files/publications/the_changing_face_of_transportation/html/table_01_01.html-0'
p1374
aS'SENT_http://www.ous.edu/sites/default/files/dept/ir/reports/fact_book_2000/edsource.htm-0'
p1375
aS'SENT_http://www.goutsa.com/fls/13100/stats/football/2012/plyr_37.htm-0'
p1376
aS'SENT_http://www.goutsa.com/fls/13100/stats/football/2012/plyr_26.htm-0'
p1377
aS'SENT_http://www.imf.org/external/pubs/ft/pam/pam48/pam4805.htm-3'
p1378
aS'SENT_http://www.eastvalleytribune.com/business/article_e347d16e-0945-11e0-a73c-001cc4c03286.html-0'
p1379
aS'SENT_http://en.wikipedia.org/wiki/UK_telephone_code_misconceptions-1'
p1380
aS'SENT_http://www.hindawi.com/journals/isrn.forestry/2013/282413/tab1/-1'
p1381
aS'SENT_http://en.wikipedia.org/wiki/0207_%26_0208-1'
p1382
aS'SENT_http://maps.met.police.uk/access.php?area=E01003875&sort=rate&order=a-3'
p1383
aS'SENT_http://www.rita.dot.gov/bts/sites/rita.dot.gov.bts/files/publications/state_transportation_statistics/iowa/html/table_02_17.html-0'
p1384
aS'SENT_http://www.arrl.org/results-database?event_id=22228&ofst=675-0'
p1385
aS'SENT_http://oilers.nhl.com/club/player.htm?id=8449354&view=stats-4'
p1386
aS'SENT_http://www.radioreference.com/apps/db/?fccCallsign=WQAQ986-6'
p1387
aS'SENT_http://www.kontraktorspbu.com/persyaratan-lokasi-spbu-pertamina/-0'
p1388
asS'../models/700112_1_300_1_1_10_15_0_20_20_MULTI.doc2vec'
p1389
(lp1390
S'SENT_http://www.freep.com/article/20120813/SPORTS17/308130076-0'
p1391
aS'SENT_http://www.angelfire.com/ak/EgyptianSports/AfricanCup78.html-2'
p1392
aS'SENT_http://www.angelfire.com/ak/EgyptianSports/AfricanCup76.html-2'
p1393
aS'SENT_http://www.federalreserve.gov/pubs/ifdp/2005/837/revision/ifdp837r.htm-0'
p1394
aS'SENT_http://www.trulia.com/real_estate/Porter_Ridge-Lincoln/4577/market-trends/-0'
p1395
aS'SENT_http://www.fao.org/docrep/006/ad672e/ad672e01.htm-1'
p1396
aS'SENT_http://www.bu.edu/isso/about/statistics/student/2011/country.html-7'
p1397
aS'SENT_http://valueoverreplacementgrit.com/2012/12/07/ron-blomberg-and-sabbathmetrics/-0'
p1398
aS'SENT_http://valueoverreplacementgrit.com/2012/04/06/ian-kinsler-and-sabbathmetrics/-0'
p1399
aS'SENT_http://www.teamspeedkills.com/2011/7/22/2288293/sec-media-days-division-picks-and-all-sec-team-announced-0'
p1400
aS'SENT_http://www.hoopdata.com/player.aspx?name=Trevor%20Booker-11'
p1401
aS'SENT_http://www.fao.org/docrep/006/Y4751E/y4751e08.htm-0'
p1402
aS'SENT_http://www.twstats.co.uk/uk4/index.php?page=player&mode=villages&id=41108-3'
p1403
aS'SENT_http://www.stevegtennis.com/head-to-head/men/Valentin_Sanon/Genius_Chidzikwe/-3'
p1404
aS'SENT_http://www.twstats.com/en26/index.php?page=rankings&mode=villages-1'
p1405
asS'../models/700112_2_100_0_0_10_15_0_10_20_SINGLE.doc2vec'
p1406
(lp1407
S'SENT_http://chartsbin.com/view/565-0'
p1408
aS'SENT_http://it.wikipedia.org/wiki/Metropolitana_di_San_Pietroburgo-2'
p1409
aS'SENT_http://websiterecord.com/dm/mfcclub.com-23'
p1410
aS'SENT_http://www.indiaonestop.com/tradepartners/eu/euoverview.htm-7'
p1411
aS'SENT_http://websiterecord.com/dm/kandangan-tv.com-22'
p1412
aS'SENT_http://www.fivb.org/EN/Volleyball/Competitions/Junior/women/2009/Photos.asp?Tourn=WJ2009-1'
p1413
aS'SENT_http://www.scientificastrology.com/keralaplaceK.htm-1'
p1414
aS'SENT_http://projects.propublica.org/lpacs/pac/glacier-pac/category/1/4-2'
p1415
aS'SENT_http://www.wunderground.com/history/airport/PABL/2013/01/19/DailyHistory.html?theprefset=observations_details&theprefvalue=0-4'
p1416
aS'SENT_http://projects.propublica.org/lpacs/pac/keeping-america-s-promise/category/1/1-2'
p1417
aS'SENT_http://www.radioreference.com/apps/db/?fccCallsign=KSA918-6'
p1418
aS'SENT_http://www.londonstockexchange.com/exchange/prices-and-markets/stocks/summary/company-summary.html?fourWayKey=XS0181523803ZZGBPMISL-4'
p1419
aS'SENT_http://www.guildox.com/go/g.aspx?a=4&r=Kazzak-eu&w=-10'
p1420
aS'SENT_http://www.londonstockexchange.com/exchange/prices-and-markets/stocks/summary/company-summary.html?fourWayKey=GB00B297TG43GBGBXAIMI-4'
p1421
aS'SENT_http://www.timeanddate.com/weather/new-zealand/hamilton/historic?hd=20130424-0'
p1422
asS'../models/700112_1_300_1_1_10_15_0_10_5_MULTI.doc2vec'
p1423
(lp1424
S'SENT_http://www.fao.org/docrep/003/W8376E/w8376e06.htm-5'
p1425
aS'SENT_http://www.sports-reference.com/olympics/athletes/ha/martin-hamor-1.html-1'
p1426
aS'SENT_http://www.footballoutsiders.com/player/16030/al-harris-3'
p1427
aS'SENT_http://www.sports-reference.com/olympics/athletes/po/jutta-poikolainen-1.html-1'
p1428
aS'SENT_http://www.bringonthecats.com/2014/2/22/5437418/sochi-2014-winter-olympics-day-16-recap-final-day-schedule-how-to-watch-and-more-0'
p1429
aS'SENT_http://valueoverreplacementgrit.com/2012/12/07/ron-blomberg-and-sabbathmetrics/-0'
p1430
ag1429
aS'SENT_http://blekko.com/wiki/Austin_Pettis?source=672620ff-8'
p1431
aS'SENT_http://www.mongabay.com/deforestation_rate_tables.htm-18'
p1432
aS'SENT_http://www.isbhf.com/en/events-w2/world-cups-u16-and-u18-w59/-1'
p1433
aS'SENT_http://mastersball.com/index.php?option=com_content&view=article&id=2342:afl-west-still-undecided&catid=934:hook-slides-2'
p1434
aS'SENT_http://nces.ed.gov/pubs2013/2013309/tables/table_01.asp-4'
p1435
aS'SENT_http://www.twstats.co.uk/uk4/index.php?page=player&mode=villages&id=41108-3'
p1436
aS'SENT_http://www.cga.ct.gov/2009/rpt/2009-R-0383.htm-12'
p1437
aS'SENT_http://www.fhwa.dot.gov/publications/research/safety/08045/index.cfm-4'
p1438
asS'../models/700112_1_300_0_1_0_15_1e-05_10_20_SINGLE.doc2vec'
p1439
(lp1440
S'SENT_http://www.twstats.com/en26/index.php?page=rankings&mode=villages-1'
p1441
aS'SENT_http://archive.ahrq.gov/qual/nhdr04/fullreport/Data_Tables/DD_91a.htm-2'
p1442
aS'SENT_http://archive.ahrq.gov/qual/nhdr04/fullreport/Data_Tables/DD_23a.htm-2'
p1443
aS'SENT_http://www.ci.redding.ca.us/demographics.html-9'
p1444
aS'SENT_http://republicoftogo.com.websitetrafficspy.com/-1'
p1445
aS'SENT_http://en.wikipedia.org/wiki/0207_%26_0208-1'
p1446
aS'SENT_http://en.wikipedia.org/wiki/UK_telephone_code_misconceptions-1'
p1447
aS'SENT_http://www.eastvalleytribune.com/business/article_e347d16e-0945-11e0-a73c-001cc4c03286.html-0'
p1448
aS'SENT_http://maps.met.police.uk/access.php?area=E01004295&sort=area&order=d-3'
p1449
aS'SENT_http://maps.met.police.uk/access.php?area=E01002897&sort=rate&order=a-3'
p1450
ag1441
aS'SENT_http://www.pro-football-reference.com/coaches/AriaBr0.htm-3'
p1451
aS'SENT_http://www.pro-football-reference.com/coaches/StudEr0.htm-3'
p1452
aS'SENT_http://www.pro-football-reference.com/coaches/TomsJi0.htm-3'
p1453
aS'SENT_http://www.pro-football-reference.com/coaches/DitkMi0.htm-3'
p1454
asS'../models/700112_1_300_1_0_0_15_1e-05_10_5_SINGLE.doc2vec'
p1455
(lp1456
S'SENT_http://www.pdga.com/player/33281/stats/2010-1'
p1457
aS'SENT_http://canadiens.nhl.com/club/player.htm?id=8471424-3'
p1458
aS'SENT_http://collegehockeyinc.com/stats/players14.php?osum11-5'
p1459
aS'SENT_http://www.sports-reference.com/olympics/athletes/bu/krzysztof-bujar-1.html-1'
p1460
aS'SENT_http://www.goalnepal.com/tournament_details.php?tid=80-41'
p1461
aS'SENT_http://www.baseballprospectus.com/prospect_tracker/results.php?org=sea&rankYear=2012&bsort=AB&bsortDir=DESC&psort=RANK&psortDir=ASC-1'
p1462
aS'SENT_http://www.childinfo.org/mics/mics3/archives/uzbekistan/survey0/dataSet/dataDictionary/varGroup5/varGroup0.html-0'
p1463
aS'SENT_http://www.radioreference.com/apps/db/?fccCallsign=WNWQ404-6'
p1464
aS'SENT_http://www.thebaseballcube.com/players/profile.asp?P=Wes-Helms&Page=GameLogs&Y=1998-5'
p1465
aS'SENT_http://stats.espnscrum.com/scrum/rugby/records/player/most_tries_match_position.html?id=189;opposition=1;type=decade-17'
p1466
aS'SENT_http://www.wunderground.com/cgi-bin/findweather/getForecast?query=zmw:33401.1.99999&hourly=1&yday=100&weekday=Thursday-3'
p1467
aS'SENT_http://www.stevegtennis.com/head-to-head/women/Jill_Craybas/Vera_Dushevina/-3'
p1468
aS'SENT_http://www.itsalloverfatman.com/broncos/entry/you-got-served-all-tebow-all-the-time-1'
p1469
aS'SENT_http://www.thestreet.com/quote/SOFO/details/income-statement.html-1'
p1470
aS'SENT_http://www.zoopla.co.uk/property/white-cottage/hopton-bank/hopton-wafers/kidderminster/dy14-0qf/7601810-0'
p1471
asS'../models/700112_1_300_1_1_10_15_0_10_20_SINGLE.doc2vec'
p1472
(lp1473
S'SENT_http://simple.wikipedia.org/wiki/Almens-1'
p1474
aS'SENT_http://www.holidaylettings.co.uk/rentals/rates/354228-0'
p1475
aS'SENT_http://www.ci.redding.ca.us/demographics.html-9'
p1476
aS'SENT_http://predators.nhl.com/club/player.htm?id=8458036&view=stats-3'
p1477
aS'SENT_http://labs.omniti.com/labs/resmon/browser/?rev=c465eb168812867886002603f9c8eae301385552-0'
p1478
aS'SENT_http://www.fao.org/docrep/006/ad672e/ad672e01.htm-1'
p1479
aS'SENT_http://www.vgchartz.com/game/15205/lego-indiana-jones-the-original-adventures/Global/-2'
p1480
aS'SENT_http://www.bloodhorse.com/auctions-tool/hip-search/horse?page=10&horseId=335324&horseSearchType=Sire&horseName=Broken%20Vow&direction=Ascending-3'
p1481
aS'SENT_http://www.bloodhorse.com/auctions-tool/hip-search/horse?Column=Status&Direction=Ascending&horseid=6946&horsename=Belong%20to%20Me&horsesearchtype=Sire-3'
p1482
aS'SENT_http://www.bloodhorse.com/auctions-tool/hip-search/horse?page=10&horseId=6484&horseSearchType=Sire&horseName=Quiet%20American&direction=Ascending-7'
p1483
aS'SENT_http://www.greatschools.org/pennsylvania/parkside/-6'
p1484
aS'SENT_http://www.spanishdict.com/conjugate/sentence-4'
p1485
aS'SENT_http://www.guidetoonlineschools.com/degrees-0'
p1486
aS'SENT_http://zipatlas.com/us/in/fishers.htm-24'
p1487
aS'SENT_http://www.cbssports.com/nfl/gametracker/live/NFL_20130929_PHI@DEN-20'
p1488
asS'../models/700112_1_300_1_0_0_15_0_20_5_MULTI.doc2vec'
p1489
(lp1490
S'SENT_http://www.pdga.com/player/33281/stats/2010-1'
p1491
aS'SENT_http://canadiens.nhl.com/club/player.htm?id=8471424-3'
p1492
aS'SENT_http://collegehockeyinc.com/stats/players14.php?osum11-5'
p1493
aS'SENT_http://www.sports-reference.com/olympics/athletes/bu/krzysztof-bujar-1.html-1'
p1494
aS'SENT_http://www.goalnepal.com/tournament_details.php?tid=80-41'
p1495
aS'SENT_http://www.baseballprospectus.com/prospect_tracker/results.php?org=sea&rankYear=2012&bsort=AB&bsortDir=DESC&psort=RANK&psortDir=ASC-1'
p1496
aS'SENT_http://www.childinfo.org/mics/mics3/archives/uzbekistan/survey0/dataSet/dataDictionary/varGroup5/varGroup0.html-0'
p1497
aS'SENT_http://www.radioreference.com/apps/db/?fccCallsign=WNWQ404-6'
p1498
aS'SENT_http://www.thebaseballcube.com/players/profile.asp?P=Wes-Helms&Page=GameLogs&Y=1998-5'
p1499
aS'SENT_http://stats.espnscrum.com/scrum/rugby/records/player/most_tries_match_position.html?id=189;opposition=1;type=decade-17'
p1500
aS'SENT_http://www.wunderground.com/cgi-bin/findweather/getForecast?query=zmw:33401.1.99999&hourly=1&yday=100&weekday=Thursday-3'
p1501
aS'SENT_http://www.stevegtennis.com/head-to-head/women/Jill_Craybas/Vera_Dushevina/-3'
p1502
aS'SENT_http://www.itsalloverfatman.com/broncos/entry/you-got-served-all-tebow-all-the-time-1'
p1503
aS'SENT_http://www.thestreet.com/quote/SOFO/details/income-statement.html-1'
p1504
aS'SENT_http://www.zoopla.co.uk/property/white-cottage/hopton-bank/hopton-wafers/kidderminster/dy14-0qf/7601810-0'
p1505
asS'../models/700112_1_300_1_1_0_15_1e-05_10_20_SINGLE.doc2vec'
p1506
(lp1507
S'SENT_http://www.rita.dot.gov/bts/sites/rita.dot.gov.bts/files/publications/the_changing_face_of_transportation/html/table_01_01.html-0'
p1508
aS'SENT_http://cricketarchive.com/Archive/Scorecards/201/201040.html-2'
p1509
aS'SENT_http://www.holidaylettings.co.uk/rentals/rates/354228-0'
p1510
aS'SENT_http://www.pdga.com/tour/event/15454-5'
p1511
aS'SENT_http://simple.wikipedia.org/wiki/List_of_countries_by_GDP_(PPP)-2'
p1512
aS'SENT_http://www.fao.org/docrep/006/j2459e/j2459e08.htm-2'
p1513
aS'SENT_http://chartsbin.com/view/565-0'
p1514
aS'SENT_http://elcarteltv.com.websitetrafficspy.com/-1'
p1515
aS'SENT_http://chivasdecorazon.com.mx.websitetrafficspy.com/-1'
p1516
aS'SENT_http://websiterecord.com/dm/nobeliefs.com-22'
p1517
aS'SENT_http://www.pro-football-reference.com/coaches/BateJi0.htm-3'
p1518
aS'SENT_http://www.pro-football-reference.com/coaches/KromAa0.htm-3'
p1519
aS'SENT_http://www.pro-football-reference.com/coaches/TomsJi0.htm-3'
p1520
aS'SENT_http://www.greatschools.org/pennsylvania/parkside/-6'
p1521
aS'SENT_http://www.pro-football-reference.com/coaches/JackHu0.htm-3'
p1522
asS'../models/700112_1_300_0_1_0_15_0_20_20_MULTI.doc2vec'
p1523
(lp1524
S'SENT_http://en.wikipedia.org/wiki/Balanced_budget_amendment-2'
p1525
aS'SENT_http://www.internetworldstats.com/asia/mn.htm-2'
p1526
aS'SENT_http://www.rita.dot.gov/bts/sites/rita.dot.gov.bts/files/publications/the_changing_face_of_transportation/html/table_01_01.html-0'
p1527
aS'SENT_http://www.internetworldstats.com/af/sn.htm-2'
p1528
aS'SENT_http://www.internetworldstats.com/asia/tj.htm-2'
p1529
aS'SENT_http://en.wikipedia.org/wiki/Air_India_Flight_182-1'
p1530
aS'SENT_http://en.wikipedia.org/wiki/David_Ayre-1'
p1531
aS'SENT_http://www.fao.org/docrep/006/ad672e/ad672e01.htm-1'
p1532
aS'SENT_http://www.fao.org/docrep/004/s8374b/S8374b06.htm-0'
p1533
aS'SENT_http://www.mongabay.com/deforestation_rate_tables.htm-18'
p1534
aS'SENT_http://www.ewtn.com/library/CHISTORY/NMBRGROW.HTM-2'
p1535
aS'SENT_http://www.fao.org/docrep/003/w9634e/W9634e03.htm-0'
p1536
aS'SENT_http://www.twstats.co.uk/uk4/index.php?page=player&mode=villages&id=41108-3'
p1537
aS'SENT_http://www.ewtn.com/library/CHRIST/Z97STATS.HTM-6'
p1538
aS'SENT_http://www.fao.org/docrep/006/Y4751E/y4751e08.htm-0'
p1539
asS'../models/700112_2_300_0_0_10_15_0_10_5_SINGLE.doc2vec'
p1540
(lp1541
S'SENT_http://lwd.dol.state.nj.us/labor/lpa/dmograph/est/stpest99.htm-0'
p1542
aS'SENT_http://www.columbia.edu/~msj42/AdministrativeDivisions.htm-2'
p1543
aS'SENT_http://www.newgeography.com/content/002566-los-angeles-gets-old-1'
p1544
aS'SENT_http://www.google.com/patents/US7041794?dq=%22robert+sheehan%22-10'
p1545
aS'SENT_http://www.zacks.com/stock/quote/JPM/balance-sheet-3'
p1546
aS'SENT_http://www.txpoliticalalmanac.com/index.php?title=HD130-0'
p1547
aS'SENT_http://www.txpoliticalalmanac.com/index.php?title=HD135-0'
p1548
aS'SENT_http://www.txpoliticalalmanac.com/index.php?title=SD26-0'
p1549
aS'SENT_http://www.txpoliticalalmanac.com/index.php?title=HD115-0'
p1550
aS'SENT_http://www.txpoliticalalmanac.com/index.php?title=SD14-0'
p1551
aS'SENT_http://www.radioreference.com/apps/db/?fccCallsign=WPFQ221-6'
p1552
aS'SENT_http://www.radioreference.com/apps/db/?fccCallsign=KQL783-6'
p1553
aS'SENT_http://www.radioreference.com/apps/db/?fccCallsign=WQDS816-6'
p1554
aS'SENT_http://www.radioreference.com/apps/db/?fccCallsign=KNCP855&s=cty-6'
p1555
aS'SENT_http://www.radioreference.com/apps/db/?fccCallsign=KSQ949-6'
p1556
asS'../models/700112_1_300_1_1_0_15_0_20_20_MULTI.doc2vec'
p1557
(lp1558
S'SENT_http://www.internetworldstats.com/af/sn.htm-2'
p1559
aS'SENT_http://www.internetworldstats.com/car/pr.htm-2'
p1560
aS'SENT_http://www.internetworldstats.com/af/ug.htm-2'
p1561
aS'SENT_http://en.wikipedia.org/wiki/Balanced_budget_amendment-2'
p1562
aS'SENT_http://www.internetworldstats.com/me/ye.htm-2'
p1563
aS'SENT_http://www.soccerway.com/matches/2013/04/21/switzerland/super-league/fc-thun/fc-basel/1293243/head2head/-2'
p1564
aS'SENT_http://www.soccerway.com/matches/2013/12/15/argentina/primera-division/newell-s-old-boys/ca-lanus/1505383/head2head/-2'
p1565
aS'SENT_http://www.soccerway.com/matches/2013/10/20/spain/segunda-b/sd-logrones/sd-compostela/1563541/head2head/-2'
p1566
aS'SENT_http://www.soccerway.com/matches/2013/02/06/brazil/paulista-a1/clube-atletico-penapolense/uniao-agricola-barbarense-de-futebol-clube/1407443/head2head/-2'
p1567
aS'SENT_http://farmingdalesports.com/sports/msoc/2013-14/players/keithorlandog37a?view=splits-1'
p1568
aS'SENT_http://flightaware.com/live/flight/UAL4234/history/20140128/1301Z/KEWR/KBWI/times-2'
p1569
aS'SENT_http://www.fta.dot.gov/grants/about_FTA_13447.html-0'
p1570
aS'SENT_http://www.sports-reference.com/cbb/schools/south-carolina/1998.html-5'
p1571
aS'SENT_http://www.aloud.com/tickets/rigoletto-0'
p1572
aS'SENT_http://flightaware.com/live/flight/ASQ4252/history/20130713/2055Z/KEWR/KIAD/times-2'
p1573
asS'../models/700112_1_300_0_1_0_15_1e-05_20_5_MULTI.doc2vec'
p1574
(lp1575
S'SENT_http://www.health.ny.gov/statistics/brfss/reports/0904_overweight_and_obesity.htm-2'
p1576
aS'SENT_http://meps.ahrq.gov/mepsweb/data_files/publications/rf22/rf22.shtml-11'
p1577
aS'SENT_http://www.hindawi.com/journals/jar/2012/537467/tab1/-1'
p1578
aS'SENT_http://meps.ahrq.gov/mepsweb/data_files/publications/rf1/rf1.shtml-7'
p1579
aS'SENT_http://onlinelibrary.wiley.com/doi/10.1111/j.1525-1497.2005.40247.x/full-1'
p1580
aS'SENT_http://www.bringonthecats.com/2014/2/22/5437418/sochi-2014-winter-olympics-day-16-recap-final-day-schedule-how-to-watch-and-more-0'
p1581
aS'SENT_http://www.fao.org/docrep/007/ae219e/ae219e00.htm-32'
p1582
aS'SENT_http://uphillhouse.com/2013/10/06/third-quarter-2013-performance/-0'
p1583
aS'SENT_http://www.banquemondiale.org/themes/crise-alimentaire/Food_Price_Watch_fevrier_2011.html-3'
p1584
aS'SENT_http://clinicaltrials.gov/ct2/show/results/NCT00405756-12'
p1585
aS'SENT_http://www.fao.org/docrep/003/w9634e/W9634e03.htm-0'
p1586
aS'SENT_http://www.arrl.org/results-database?event_id=13652&ofst=800-0'
p1587
aS'SENT_http://www.twstats.co.uk/uk4/index.php?page=player&mode=villages&id=41108-3'
p1588
aS'SENT_http://www.ewtn.com/library/CHRIST/Z97STATS.HTM-6'
p1589
aS'SENT_http://www.fao.org/docrep/006/Y4751E/y4751e08.htm-0'
p1590
asS'../models/700112_1_300_1_0_0_15_1e-05_10_5_MULTI.doc2vec'
p1591
(lp1592
S'SENT_http://www.pdga.com/player/33281/stats/2010-1'
p1593
aS'SENT_http://canadiens.nhl.com/club/player.htm?id=8471424-3'
p1594
aS'SENT_http://collegehockeyinc.com/stats/players14.php?osum11-5'
p1595
aS'SENT_http://www.sports-reference.com/olympics/athletes/bu/krzysztof-bujar-1.html-1'
p1596
aS'SENT_http://www.goalnepal.com/tournament_details.php?tid=80-41'
p1597
aS'SENT_http://www.baseballprospectus.com/prospect_tracker/results.php?org=sea&rankYear=2012&bsort=AB&bsortDir=DESC&psort=RANK&psortDir=ASC-1'
p1598
aS'SENT_http://www.childinfo.org/mics/mics3/archives/uzbekistan/survey0/dataSet/dataDictionary/varGroup5/varGroup0.html-0'
p1599
aS'SENT_http://www.radioreference.com/apps/db/?fccCallsign=WNWQ404-6'
p1600
aS'SENT_http://www.thebaseballcube.com/players/profile.asp?P=Wes-Helms&Page=GameLogs&Y=1998-5'
p1601
aS'SENT_http://stats.espnscrum.com/scrum/rugby/records/player/most_tries_match_position.html?id=189;opposition=1;type=decade-17'
p1602
aS'SENT_http://www.wunderground.com/cgi-bin/findweather/getForecast?query=zmw:33401.1.99999&hourly=1&yday=100&weekday=Thursday-3'
p1603
aS'SENT_http://www.stevegtennis.com/head-to-head/women/Jill_Craybas/Vera_Dushevina/-3'
p1604
aS'SENT_http://www.itsalloverfatman.com/broncos/entry/you-got-served-all-tebow-all-the-time-1'
p1605
aS'SENT_http://www.thestreet.com/quote/SOFO/details/income-statement.html-1'
p1606
aS'SENT_http://www.zoopla.co.uk/property/white-cottage/hopton-bank/hopton-wafers/kidderminster/dy14-0qf/7601810-0'
p1607
asS'../models/700112_2_100_0_1_10_15_0_10_5_SINGLE.doc2vec'
p1608
(lp1609
S'SENT_http://archive.ahrq.gov/qual/nhdr04/fullreport/Data_Tables/DD_91a.htm-2'
p1610
aS'SENT_http://www.armenian-history.com/Nyuter/demography/Statistics_Armpop_%20of_Caucasus_in_19th-20thcenturies.htm-16'
p1611
aS'SENT_http://websiterecord.com/dm/autobidmaster.com-28'
p1612
aS'SENT_http://www.newnation.org/NNN-news-aboriginal.html-75'
p1613
aS'SENT_http://maktoub.com.websitetrafficspy.com/-1'
p1614
aS'SENT_http://en.wikipedia.org/wiki/Nam_Trung_B%e1%bb%99-0'
p1615
aS'SENT_http://uk.soccerway.com/matches/2012/04/04/venezuela/primera-division/zulia-futbol-club/guaros-de-lara-fc/1245533/head2head/-7'
p1616
aS'SENT_http://www.soccerway.com/matches/2012/09/22/czech-republic/4-ligy/tj-tatran-brno-bohunice/sk-vykov/1302542/head2head/-2'
p1617
aS'SENT_http://www.soccerway.com/matches/2012/09/19/russia/2-division/fk-spartak-yoshkar-ola/fk-syzran-2003/1343503/head2head/-7'
p1618
aS'SENT_http://www.soccerway.com/matches/2013/02/16/england/championship/hull-city-afc/charlton-athletic-football-club/1295741/head2head/-2'
p1619
aS'SENT_http://www.jobs-salary.com/allendale-salary-nj.htm-2'
p1620
aS'SENT_http://www.jobs-salary.com/elizabeth-salary-nj.htm-2'
p1621
aS'SENT_http://www.jobs-salary.com/merit-medical-group-physician-salary.htm-2'
p1622
aS'SENT_http://www.jobs-salary.com/merit-medical-group-internist-salary.htm-2'
p1623
aS'SENT_http://www.jobs-salary.com/keansburg-salary-nj.htm-2'
p1624
as.