(dp1
S'../models/700112_1_300_1_1_0_15_1e-05_10_5_MULTI.doc2vec'
p2
I1
sS'../models/700112_1_300_1_0_10_15_1e-05_10_5_SINGLE.doc2vec'
p3
I1
sS'../models/700112_1_300_0_1_10_15_1e-05_10_5_MULTI.doc2vec'
p4
I2
sS'../models/700112_1_300_0_1_10_15_0_10_20_SINGLE.doc2vec'
p5
I4
sS'../models/700112_1_300_0_0_0_15_1e-05_10_5_MULTI.doc2vec'
p6
I0
sS'../models/700112_1_300_0_0_0_15_1e-05_10_20_SINGLE.doc2vec'
p7
I0
sS'../models/700112_2_100_0_1_0_15_1e-05_10_20_SINGLE.doc2vec'
p8
I4
sS'../models/700112_1_300_0_0_0_15_1e-05_20_20_SINGLE.doc2vec'
p9
I0
sS'../models/700112_1_300_0_0_10_15_1e-05_10_20_MULTI.doc2vec'
p10
I2
sS'../models/700112_1_300_1_0_10_15_1e-05_20_5_MULTI.doc2vec'
p11
I0
sS'../models/700112_1_300_0_0_10_15_0_20_20_SINGLE.doc2vec'
p12
I0
sS'../models/700112_2_300_0_0_0_15_1e-05_10_5_SINGLE.doc2vec'
p13
I0
sS'../models/700112_1_300_0_1_10_15_1e-05_20_5_MULTI.doc2vec'
p14
I5
sS'../models/700112_1_300_1_0_0_15_0_20_20_MULTI.doc2vec'
p15
I0
sS'../models/700112_1_300_0_1_0_15_1e-05_10_5_SINGLE.doc2vec'
p16
I4
sS'../models/700112_1_300_0_1_0_15_1e-05_20_20_MULTI.doc2vec'
p17
I1
sS'../models/700112_1_300_1_0_0_15_1e-05_10_20_MULTI.doc2vec'
p18
I0
sS'../models/700112_2_300_0_1_0_15_0_10_5_SINGLE.doc2vec'
p19
I5
sS'../models/700112_2_300_0_1_0_15_1e-05_10_20_SINGLE.doc2vec'
p20
I1
sS'../models/700112_1_300_0_1_10_15_0_20_5_SINGLE.doc2vec'
p21
I0
sS'../models/700112_1_300_1_0_10_15_1e-05_10_20_MULTI.doc2vec'
p22
I4
sS'../models/700112_1_300_1_1_0_15_0_10_5_MULTI.doc2vec'
p23
I0
sS'../models/700112_1_300_0_0_10_15_0_10_20_SINGLE.doc2vec'
p24
I3
sS'../models/700112_1_300_0_0_10_15_1e-05_20_20_SINGLE.doc2vec'
p25
I2
sS'../models/700112_1_300_0_0_0_15_1e-05_20_5_SINGLE.doc2vec'
p26
I0
sS'../models/700112_1_300_1_0_10_15_1e-05_10_20_SINGLE.doc2vec'
p27
I1
sS'../models/700112_2_300_0_1_0_15_1e-05_10_5_SINGLE.doc2vec'
p28
I0
sS'../models/700112_1_300_1_1_10_15_1e-05_20_20_SINGLE.doc2vec'
p29
I1
sS'../models/700112_1_300_0_0_0_15_0_20_5_SINGLE.doc2vec'
p30
I0
sS'../models/700112_1_300_0_0_10_15_1e-05_10_20_SINGLE.doc2vec'
p31
I0
sS'../models/700112_2_300_0_0_10_15_1e-05_10_5_SINGLE.doc2vec'
p32
I0
sS'../models/700112_1_300_0_1_0_15_0_20_5_SINGLE.doc2vec'
p33
I0
sS'../models/700112_1_300_1_0_0_15_0_10_5_MULTI.doc2vec'
p34
I0
sS'../models/700112_1_300_1_0_0_15_1e-05_20_5_MULTI.doc2vec'
p35
I0
sS'../models/700112_1_300_0_1_0_15_1e-05_10_20_MULTI.doc2vec'
p36
I1
sS'../models/700112_1_300_1_0_0_15_1e-05_20_20_MULTI.doc2vec'
p37
I0
sS'../models/700112_1_300_0_0_10_15_0_10_5_SINGLE.doc2vec'
p38
I1
sS'../models/700112_1_300_1_1_10_15_0_10_5_SINGLE.doc2vec'
p39
I4
sS'../models/700112_2_300_0_0_0_15_1e-05_10_20_SINGLE.doc2vec'
p40
I0
sS'../models/700112_1_300_1_0_0_15_1e-05_20_5_SINGLE.doc2vec'
p41
I0
sS'../models/700112_1_300_0_1_0_15_0_10_5_SINGLE.doc2vec'
p42
I0
sS'../models/700112_1_300_1_1_0_15_0_20_20_SINGLE.doc2vec'
p43
I0
sS'../models/700112_1_300_1_1_10_15_0_20_20_SINGLE.doc2vec'
p44
I2
sS'../models/700112_2_100_0_0_10_15_1e-05_10_5_SINGLE.doc2vec'
p45
I1
sS'../models/700112_1_300_0_1_0_15_0_20_20_SINGLE.doc2vec'
p46
I0
sS'../models/700112_1_300_1_1_10_15_1e-05_20_20_MULTI.doc2vec'
p47
I0
sS'../models/700112_2_300_0_0_10_15_0_10_20_SINGLE.doc2vec'
p48
I1
sS'../models/700112_1_300_0_1_0_15_0_10_20_SINGLE.doc2vec'
p49
I0
sS'../models/700112_1_300_1_0_10_15_1e-05_20_20_MULTI.doc2vec'
p50
I0
sS'../models/700112_1_300_1_1_10_15_1e-05_20_5_MULTI.doc2vec'
p51
I0
sS'../models/700112_2_100_0_1_0_15_0_10_20_SINGLE.doc2vec'
p52
I3
sS'../models/700112_1_300_1_0_0_15_0_10_5_SINGLE.doc2vec'
p53
I0
sS'../models/700112_1_300_0_1_10_15_0_10_20_MULTI.doc2vec'
p54
I1
sS'../models/700112_1_300_1_1_0_15_1e-05_10_5_SINGLE.doc2vec'
p55
I0
sS'../models/700112_1_300_0_0_0_15_1e-05_10_20_MULTI.doc2vec'
p56
I0
sS'../models/700112_1_300_1_0_10_15_0_10_5_MULTI.doc2vec'
p57
I0
sS'../models/700112_1_300_1_0_10_15_0_20_5_SINGLE.doc2vec'
p58
I0
sS'../models/700112_1_300_1_1_0_15_0_20_5_MULTI.doc2vec'
p59
I0
sS'../models/700112_1_300_0_0_10_15_1e-05_10_5_MULTI.doc2vec'
p60
I0
sS'../models/700112_1_300_0_1_10_15_1e-05_20_5_SINGLE.doc2vec'
p61
I0
sS'../models/700112_1_300_1_1_0_15_1e-05_20_5_MULTI.doc2vec'
p62
I2
sS'../models/700112_2_100_0_0_0_15_1e-05_10_5_SINGLE.doc2vec'
p63
I0
sS'../models/700112_1_300_1_1_10_15_1e-05_10_5_SINGLE.doc2vec'
p64
I0
sS'../models/700112_1_300_1_0_10_15_0_10_20_SINGLE.doc2vec'
p65
I0
sS'../models/700112_2_300_0_1_10_15_0_10_20_SINGLE.doc2vec'
p66
I3
sS'../models/700112_1_300_0_1_10_15_1e-05_20_20_MULTI.doc2vec'
p67
I1
sS'../models/700112_1_300_0_0_10_15_0_10_20_MULTI.doc2vec'
p68
I0
sS'../models/700112_1_300_1_1_10_15_1e-05_10_20_SINGLE.doc2vec'
p69
I1
sS'../models/700112_1_300_1_1_0_15_0_10_20_SINGLE.doc2vec'
p70
I3
sS'../models/700112_1_300_1_1_10_15_0_20_5_MULTI.doc2vec'
p71
I0
sS'../models/700112_1_300_0_0_10_15_0_20_5_MULTI.doc2vec'
p72
I0
sS'../models/700112_1_300_0_0_0_15_0_20_20_SINGLE.doc2vec'
p73
I0
sS'../models/700112_1_300_1_1_10_15_0_10_20_MULTI.doc2vec'
p74
I0
sS'../models/700112_1_300_0_0_0_15_0_20_5_MULTI.doc2vec'
p75
I0
sS'../models/700112_1_300_0_1_10_15_0_10_5_SINGLE.doc2vec'
p76
I3
sS'../models/700112_1_300_1_0_10_15_0_10_5_SINGLE.doc2vec'
p77
I0
sS'../models/700112_2_300_0_1_10_15_1e-05_10_20_SINGLE.doc2vec'
p78
I0
sS'../models/700112_2_300_0_1_10_15_0_10_5_SINGLE.doc2vec'
p79
I3
sS'../models/700112_1_300_1_0_0_15_1e-05_20_20_SINGLE.doc2vec'
p80
I0
sS'../models/700112_1_300_0_0_0_15_0_10_5_MULTI.doc2vec'
p81
I0
sS'../models/700112_1_300_0_0_10_15_1e-05_20_5_MULTI.doc2vec'
p82
I0
sS'../models/700112_1_300_1_1_10_15_1e-05_10_20_MULTI.doc2vec'
p83
I0
sS'../models/700112_1_300_1_1_10_15_0_20_20_MULTI.doc2vec'
p84
I0
sS'../models/700112_2_100_0_0_10_15_0_10_20_SINGLE.doc2vec'
p85
I1
sS'../models/700112_1_300_1_1_10_15_0_10_5_MULTI.doc2vec'
p86
I0
sS'../models/700112_1_300_0_1_0_15_1e-05_10_20_SINGLE.doc2vec'
p87
I3
sS'../models/700112_1_300_1_0_0_15_1e-05_10_5_SINGLE.doc2vec'
p88
I0
sS'../models/700112_1_300_1_1_10_15_0_10_20_SINGLE.doc2vec'
p89
I0
sS'../models/700112_1_300_1_0_0_15_0_20_5_MULTI.doc2vec'
p90
I0
sS'../models/700112_1_300_1_1_0_15_1e-05_10_20_SINGLE.doc2vec'
p91
I2
sS'../models/700112_1_300_0_1_0_15_0_20_20_MULTI.doc2vec'
p92
I3
sS'../models/700112_2_300_0_0_10_15_0_10_5_SINGLE.doc2vec'
p93
I0
sS'../models/700112_1_300_0_0_0_15_0_20_20_MULTI.doc2vec'
p94
I0
sS'../models/700112_1_300_1_1_0_15_0_20_20_MULTI.doc2vec'
p95
I3
sS'../models/700112_1_300_0_1_0_15_1e-05_20_5_MULTI.doc2vec'
p96
I2
sS'../models/700112_1_300_1_0_0_15_1e-05_10_5_MULTI.doc2vec'
p97
I0
sS'../models/700112_2_100_0_1_10_15_0_10_5_SINGLE.doc2vec'
p98
I3
s.